
/home/zach/pico/custom/blink/build/blink.elf:     file format elf32-littlearm

Sections:
Idx Name          Size      VMA       LMA       File off  Algn
  0 .boot2        00000100  10000000  10000000  00001000  2**0
                  CONTENTS, ALLOC, LOAD, READONLY, CODE
  1 .text         00004f40  10000100  10000100  00001100  2**4
                  CONTENTS, ALLOC, LOAD, READONLY, CODE
  2 .rodata       00000134  10005040  10005040  00006040  2**2
                  CONTENTS, ALLOC, LOAD, READONLY, DATA
  3 .binary_info  00000024  10005174  10005174  00006174  2**2
                  CONTENTS, ALLOC, LOAD, DATA
  4 .ram_vector_table 000000c0  20000000  20000000  00007248  2**2
                  CONTENTS
  5 .data         00000188  200000c0  10005198  000070c0  2**4
                  CONTENTS, ALLOC, LOAD, CODE
  6 .uninitialized_data 00000000  20000248  20000248  00007308  2**0
                  CONTENTS
  7 .scratch_x    00000000  20040000  20040000  00007308  2**0
                  CONTENTS
  8 .scratch_y    00000000  20041000  20041000  00007308  2**0
                  CONTENTS
  9 .bss          0000c8bc  20000248  20000248  00007248  2**3
                  ALLOC
 10 .heap         00000800  2000cb04  2000cb04  00007308  2**2
                  CONTENTS, READONLY
 11 .stack_dummy  00000800  20041000  20041000  00007b20  2**5
                  CONTENTS, READONLY
 12 .ARM.attributes 00000028  00000000  00000000  00008320  2**0
                  CONTENTS, READONLY
 13 .comment      000000a7  00000000  00000000  00008348  2**0
                  CONTENTS, READONLY
 14 .debug_line   00000222  00000000  00000000  000083ef  2**0
                  CONTENTS, READONLY, DEBUGGING, OCTETS
 15 .debug_info   00000999  00000000  00000000  00008611  2**0
                  CONTENTS, READONLY, DEBUGGING, OCTETS
 16 .debug_abbrev 000001fc  00000000  00000000  00008faa  2**0
                  CONTENTS, READONLY, DEBUGGING, OCTETS
 17 .debug_aranges 00000040  00000000  00000000  000091a8  2**3
                  CONTENTS, READONLY, DEBUGGING, OCTETS
 18 .debug_str    00000613  00000000  00000000  000091e8  2**0
                  CONTENTS, READONLY, DEBUGGING, OCTETS
 19 .debug_loc    000000a3  00000000  00000000  000097fb  2**0
                  CONTENTS, READONLY, DEBUGGING, OCTETS
 20 .debug_frame  00000028  00000000  00000000  000098a0  2**2
                  CONTENTS, READONLY, DEBUGGING, OCTETS

/home/zach/pico/custom/blink/build/blink.elf:     file format elf32-littlearm


Disassembly of section .boot2:

10000000 <__boot2_start__>:
10000000:	4b32b500 	.word	0x4b32b500
10000004:	60582021 	.word	0x60582021
10000008:	21026898 	.word	0x21026898
1000000c:	60984388 	.word	0x60984388
10000010:	611860d8 	.word	0x611860d8
10000014:	4b2e6158 	.word	0x4b2e6158
10000018:	60992100 	.word	0x60992100
1000001c:	61592102 	.word	0x61592102
10000020:	22f02101 	.word	0x22f02101
10000024:	492b5099 	.word	0x492b5099
10000028:	21016019 	.word	0x21016019
1000002c:	20356099 	.word	0x20356099
10000030:	f844f000 	.word	0xf844f000
10000034:	42902202 	.word	0x42902202
10000038:	2106d014 	.word	0x2106d014
1000003c:	f0006619 	.word	0xf0006619
10000040:	6e19f834 	.word	0x6e19f834
10000044:	66192101 	.word	0x66192101
10000048:	66182000 	.word	0x66182000
1000004c:	f000661a 	.word	0xf000661a
10000050:	6e19f82c 	.word	0x6e19f82c
10000054:	6e196e19 	.word	0x6e196e19
10000058:	f0002005 	.word	0xf0002005
1000005c:	2101f82f 	.word	0x2101f82f
10000060:	d1f94208 	.word	0xd1f94208
10000064:	60992100 	.word	0x60992100
10000068:	6019491b 	.word	0x6019491b
1000006c:	60592100 	.word	0x60592100
10000070:	481b491a 	.word	0x481b491a
10000074:	21016001 	.word	0x21016001
10000078:	21eb6099 	.word	0x21eb6099
1000007c:	21a06619 	.word	0x21a06619
10000080:	f0006619 	.word	0xf0006619
10000084:	2100f812 	.word	0x2100f812
10000088:	49166099 	.word	0x49166099
1000008c:	60014814 	.word	0x60014814
10000090:	60992101 	.word	0x60992101
10000094:	2800bc01 	.word	0x2800bc01
10000098:	4700d000 	.word	0x4700d000
1000009c:	49134812 	.word	0x49134812
100000a0:	c8036008 	.word	0xc8036008
100000a4:	8808f380 	.word	0x8808f380
100000a8:	b5034708 	.word	0xb5034708
100000ac:	20046a99 	.word	0x20046a99
100000b0:	d0fb4201 	.word	0xd0fb4201
100000b4:	42012001 	.word	0x42012001
100000b8:	bd03d1f8 	.word	0xbd03d1f8
100000bc:	6618b502 	.word	0x6618b502
100000c0:	f7ff6618 	.word	0xf7ff6618
100000c4:	6e18fff2 	.word	0x6e18fff2
100000c8:	bd026e18 	.word	0xbd026e18
100000cc:	40020000 	.word	0x40020000
100000d0:	18000000 	.word	0x18000000
100000d4:	00070000 	.word	0x00070000
100000d8:	005f0300 	.word	0x005f0300
100000dc:	00002221 	.word	0x00002221
100000e0:	180000f4 	.word	0x180000f4
100000e4:	a0002022 	.word	0xa0002022
100000e8:	10000100 	.word	0x10000100
100000ec:	e000ed08 	.word	0xe000ed08
	...
100000fc:	7a4eb274 	.word	0x7a4eb274

Disassembly of section .text:

10000100 <__VECTOR_TABLE>:
10000100:	20042000 	.word	0x20042000
10000104:	100001f7 	.word	0x100001f7
10000108:	100001c3 	.word	0x100001c3
1000010c:	100001c5 	.word	0x100001c5
10000110:	100001c1 	.word	0x100001c1
10000114:	100001c1 	.word	0x100001c1
10000118:	100001c1 	.word	0x100001c1
1000011c:	100001c1 	.word	0x100001c1
10000120:	100001c1 	.word	0x100001c1
10000124:	100001c1 	.word	0x100001c1
10000128:	100001c1 	.word	0x100001c1
1000012c:	10003945 	.word	0x10003945
10000130:	100001c1 	.word	0x100001c1
10000134:	100001c1 	.word	0x100001c1
10000138:	100039a1 	.word	0x100039a1
1000013c:	100039e5 	.word	0x100039e5
10000140:	100001cd 	.word	0x100001cd
10000144:	100001cd 	.word	0x100001cd
10000148:	100001cd 	.word	0x100001cd
1000014c:	100001cd 	.word	0x100001cd
10000150:	100001cd 	.word	0x100001cd
10000154:	100001cd 	.word	0x100001cd
10000158:	100001cd 	.word	0x100001cd
1000015c:	100001cd 	.word	0x100001cd
10000160:	100001cd 	.word	0x100001cd
10000164:	100001cd 	.word	0x100001cd
10000168:	100001cd 	.word	0x100001cd
1000016c:	100001cd 	.word	0x100001cd
10000170:	100001cd 	.word	0x100001cd
10000174:	100001cd 	.word	0x100001cd
10000178:	100001cd 	.word	0x100001cd
1000017c:	100001cd 	.word	0x100001cd
10000180:	100001cd 	.word	0x100001cd
10000184:	100001cd 	.word	0x100001cd
10000188:	100001cd 	.word	0x100001cd
1000018c:	100001cd 	.word	0x100001cd
10000190:	100001cd 	.word	0x100001cd
10000194:	100001cd 	.word	0x100001cd
10000198:	100001cd 	.word	0x100001cd
1000019c:	100001cd 	.word	0x100001cd
100001a0:	100001cd 	.word	0x100001cd
100001a4:	100001cd 	.word	0x100001cd
100001a8:	100001cd 	.word	0x100001cd
100001ac:	100001cd 	.word	0x100001cd
100001b0:	100001cd 	.word	0x100001cd
100001b4:	100001cd 	.word	0x100001cd
100001b8:	100001cd 	.word	0x100001cd
100001bc:	100001cd 	.word	0x100001cd

100001c0 <isr_invalid>:
100001c0:	be00      	bkpt	0x0000

100001c2 <isr_nmi>:
100001c2:	be00      	bkpt	0x0000

100001c4 <isr_hardfault>:
100001c4:	be00      	bkpt	0x0000
100001c6:	be00      	bkpt	0x0000
100001c8:	be00      	bkpt	0x0000
100001ca:	be00      	bkpt	0x0000

100001cc <__unhandled_user_irq>:
100001cc:	f000 f84b 	bl	10000266 <__get_current_exception>
100001d0:	3810      	subs	r0, #16

100001d2 <unhandled_user_irq_num_in_r0>:
100001d2:	be00      	bkpt	0x0000

100001d4 <binary_info_header>:
100001d4:	7188ebf2 	.word	0x7188ebf2
100001d8:	10005174 	.word	0x10005174
100001dc:	10005198 	.word	0x10005198
100001e0:	10000234 	.word	0x10000234
100001e4:	e71aa390 	.word	0xe71aa390

100001e8 <_entry_point>:
100001e8:	2000      	movs	r0, #0
100001ea:	4921      	ldr	r1, [pc, #132]	; (10000270 <__get_current_exception+0xa>)
100001ec:	6008      	str	r0, [r1, #0]
100001ee:	c806      	ldmia	r0!, {r1, r2}
100001f0:	f381 8808 	msr	MSP, r1
100001f4:	4710      	bx	r2

100001f6 <_reset_handler>:
100001f6:	481f      	ldr	r0, [pc, #124]	; (10000274 <__get_current_exception+0xe>)
100001f8:	6800      	ldr	r0, [r0, #0]
100001fa:	2800      	cmp	r0, #0
100001fc:	d12f      	bne.n	1000025e <hold_non_core0_in_bootrom>
100001fe:	a40d      	add	r4, pc, #52	; (adr r4, 10000234 <data_cpy_table>)
10000200:	cc0e      	ldmia	r4!, {r1, r2, r3}
10000202:	2900      	cmp	r1, #0
10000204:	d002      	beq.n	1000020c <_reset_handler+0x16>
10000206:	f000 f812 	bl	1000022e <data_cpy>
1000020a:	e7f9      	b.n	10000200 <_reset_handler+0xa>
1000020c:	491a      	ldr	r1, [pc, #104]	; (10000278 <__get_current_exception+0x12>)
1000020e:	4a1b      	ldr	r2, [pc, #108]	; (1000027c <__get_current_exception+0x16>)
10000210:	2000      	movs	r0, #0
10000212:	e000      	b.n	10000216 <bss_fill_test>

10000214 <bss_fill_loop>:
10000214:	c101      	stmia	r1!, {r0}

10000216 <bss_fill_test>:
10000216:	4291      	cmp	r1, r2
10000218:	d1fc      	bne.n	10000214 <bss_fill_loop>

1000021a <platform_entry>:
1000021a:	4919      	ldr	r1, [pc, #100]	; (10000280 <__get_current_exception+0x1a>)
1000021c:	4788      	blx	r1
1000021e:	4919      	ldr	r1, [pc, #100]	; (10000284 <__get_current_exception+0x1e>)
10000220:	4788      	blx	r1
10000222:	4919      	ldr	r1, [pc, #100]	; (10000288 <__get_current_exception+0x22>)
10000224:	4788      	blx	r1
10000226:	be00      	bkpt	0x0000
10000228:	e7fd      	b.n	10000226 <platform_entry+0xc>

1000022a <data_cpy_loop>:
1000022a:	c901      	ldmia	r1!, {r0}
1000022c:	c201      	stmia	r2!, {r0}

1000022e <data_cpy>:
1000022e:	429a      	cmp	r2, r3
10000230:	d3fb      	bcc.n	1000022a <data_cpy_loop>
10000232:	4770      	bx	lr

10000234 <data_cpy_table>:
10000234:	10005198 	.word	0x10005198
10000238:	200000c0 	.word	0x200000c0
1000023c:	20000248 	.word	0x20000248
10000240:	10005320 	.word	0x10005320
10000244:	20040000 	.word	0x20040000
10000248:	20040000 	.word	0x20040000
1000024c:	10005320 	.word	0x10005320
10000250:	20041000 	.word	0x20041000
10000254:	20041000 	.word	0x20041000
10000258:	00000000 	.word	0x00000000
1000025c:	4770      	bx	lr

1000025e <hold_non_core0_in_bootrom>:
1000025e:	480b      	ldr	r0, [pc, #44]	; (1000028c <__get_current_exception+0x26>)
10000260:	f001 faee 	bl	10001840 <rom_func_lookup>
10000264:	4700      	bx	r0

10000266 <__get_current_exception>:
10000266:	f3ef 8005 	mrs	r0, IPSR
1000026a:	b2c0      	uxtb	r0, r0
1000026c:	4770      	bx	lr
1000026e:	0000      	.short	0x0000
10000270:	e000ed08 	.word	0xe000ed08
10000274:	d0000000 	.word	0xd0000000
10000278:	20000248 	.word	0x20000248
1000027c:	2000cb04 	.word	0x2000cb04
10000280:	10001001 	.word	0x10001001
10000284:	10000399 	.word	0x10000399
10000288:	100010f1 	.word	0x100010f1
1000028c:	00005657 	.word	0x00005657

10000290 <__bi_50>:
10000290:	50520006 5360b3ab 100050b0              ..RP..`S.P..

1000029c <__bi_38>:
1000029c:	50520006 02031c86 100050c0              ..RP.....P..

100002a8 <__bi_30>:
100002a8:	50520006 9da22254 100050c8              ..RPT"...P..

100002b4 <__bi_22>:
100002b4:	50520005 68f465de 10005320              ..RP.e.h S..

100002c0 <_init>:
100002c0:	b5f8      	push	{r3, r4, r5, r6, r7, lr}
100002c2:	46c0      	nop			; (mov r8, r8)

100002c4 <deregister_tm_clones>:
100002c4:	4804      	ldr	r0, [pc, #16]	; (100002d8 <deregister_tm_clones+0x14>)
100002c6:	4b05      	ldr	r3, [pc, #20]	; (100002dc <deregister_tm_clones+0x18>)
100002c8:	b510      	push	{r4, lr}
100002ca:	4283      	cmp	r3, r0
100002cc:	d003      	beq.n	100002d6 <deregister_tm_clones+0x12>
100002ce:	4b04      	ldr	r3, [pc, #16]	; (100002e0 <deregister_tm_clones+0x1c>)
100002d0:	2b00      	cmp	r3, #0
100002d2:	d000      	beq.n	100002d6 <deregister_tm_clones+0x12>
100002d4:	4798      	blx	r3
100002d6:	bd10      	pop	{r4, pc}
100002d8:	20000248 	.word	0x20000248
100002dc:	20000248 	.word	0x20000248
100002e0:	00000000 	.word	0x00000000

100002e4 <register_tm_clones>:
100002e4:	4806      	ldr	r0, [pc, #24]	; (10000300 <register_tm_clones+0x1c>)
100002e6:	4907      	ldr	r1, [pc, #28]	; (10000304 <register_tm_clones+0x20>)
100002e8:	1a09      	subs	r1, r1, r0
100002ea:	108b      	asrs	r3, r1, #2
100002ec:	0fc9      	lsrs	r1, r1, #31
100002ee:	18c9      	adds	r1, r1, r3
100002f0:	b510      	push	{r4, lr}
100002f2:	1049      	asrs	r1, r1, #1
100002f4:	d003      	beq.n	100002fe <register_tm_clones+0x1a>
100002f6:	4b04      	ldr	r3, [pc, #16]	; (10000308 <register_tm_clones+0x24>)
100002f8:	2b00      	cmp	r3, #0
100002fa:	d000      	beq.n	100002fe <register_tm_clones+0x1a>
100002fc:	4798      	blx	r3
100002fe:	bd10      	pop	{r4, pc}
10000300:	20000248 	.word	0x20000248
10000304:	20000248 	.word	0x20000248
10000308:	00000000 	.word	0x00000000

1000030c <__do_global_dtors_aux>:
1000030c:	b510      	push	{r4, lr}
1000030e:	4c07      	ldr	r4, [pc, #28]	; (1000032c <__do_global_dtors_aux+0x20>)
10000310:	7823      	ldrb	r3, [r4, #0]
10000312:	2b00      	cmp	r3, #0
10000314:	d109      	bne.n	1000032a <__do_global_dtors_aux+0x1e>
10000316:	f7ff ffd5 	bl	100002c4 <deregister_tm_clones>
1000031a:	4b05      	ldr	r3, [pc, #20]	; (10000330 <__do_global_dtors_aux+0x24>)
1000031c:	2b00      	cmp	r3, #0
1000031e:	d002      	beq.n	10000326 <__do_global_dtors_aux+0x1a>
10000320:	4804      	ldr	r0, [pc, #16]	; (10000334 <__do_global_dtors_aux+0x28>)
10000322:	e000      	b.n	10000326 <__do_global_dtors_aux+0x1a>
10000324:	bf00      	nop
10000326:	2301      	movs	r3, #1
10000328:	7023      	strb	r3, [r4, #0]
1000032a:	bd10      	pop	{r4, pc}
1000032c:	20000348 	.word	0x20000348
10000330:	00000000 	.word	0x00000000
10000334:	10005040 	.word	0x10005040

10000338 <frame_dummy>:
10000338:	4b05      	ldr	r3, [pc, #20]	; (10000350 <frame_dummy+0x18>)
1000033a:	b510      	push	{r4, lr}
1000033c:	2b00      	cmp	r3, #0
1000033e:	d003      	beq.n	10000348 <frame_dummy+0x10>
10000340:	4904      	ldr	r1, [pc, #16]	; (10000354 <frame_dummy+0x1c>)
10000342:	4805      	ldr	r0, [pc, #20]	; (10000358 <frame_dummy+0x20>)
10000344:	e000      	b.n	10000348 <frame_dummy+0x10>
10000346:	bf00      	nop
10000348:	f7ff ffcc 	bl	100002e4 <register_tm_clones>
1000034c:	bd10      	pop	{r4, pc}
1000034e:	46c0      	nop			; (mov r8, r8)
10000350:	00000000 	.word	0x00000000
10000354:	2000034c 	.word	0x2000034c
10000358:	10005040 	.word	0x10005040

1000035c <GreenLEDTask>:
1000035c:	b570      	push	{r4, r5, r6, lr}
1000035e:	25d0      	movs	r5, #208	; 0xd0
10000360:	2480      	movs	r4, #128	; 0x80
10000362:	062d      	lsls	r5, r5, #24
10000364:	04a4      	lsls	r4, r4, #18
10000366:	20fa      	movs	r0, #250	; 0xfa
10000368:	616c      	str	r4, [r5, #20]
1000036a:	0080      	lsls	r0, r0, #2
1000036c:	f002 fb14 	bl	10002998 <vTaskDelay>
10000370:	20fa      	movs	r0, #250	; 0xfa
10000372:	61ac      	str	r4, [r5, #24]
10000374:	0080      	lsls	r0, r0, #2
10000376:	f002 fb0f 	bl	10002998 <vTaskDelay>
1000037a:	e7f4      	b.n	10000366 <GreenLEDTask+0xa>

1000037c <RedLEDTask>:
1000037c:	b570      	push	{r4, r5, r6, lr}
1000037e:	24d0      	movs	r4, #208	; 0xd0
10000380:	2601      	movs	r6, #1
10000382:	2501      	movs	r5, #1
10000384:	0624      	lsls	r4, r4, #24
10000386:	2064      	movs	r0, #100	; 0x64
10000388:	6165      	str	r5, [r4, #20]
1000038a:	f002 fb05 	bl	10002998 <vTaskDelay>
1000038e:	2064      	movs	r0, #100	; 0x64
10000390:	61a6      	str	r6, [r4, #24]
10000392:	f002 fb01 	bl	10002998 <vTaskDelay>
10000396:	e7f6      	b.n	10000386 <RedLEDTask+0xa>

10000398 <main>:
10000398:	b530      	push	{r4, r5, lr}
1000039a:	b085      	sub	sp, #20
1000039c:	f001 fcd6 	bl	10001d4c <stdio_init_all>
100003a0:	2019      	movs	r0, #25
100003a2:	f000 f843 	bl	1000042c <gpio_init>
100003a6:	25d0      	movs	r5, #208	; 0xd0
100003a8:	2380      	movs	r3, #128	; 0x80
100003aa:	2401      	movs	r4, #1
100003ac:	049b      	lsls	r3, r3, #18
100003ae:	062d      	lsls	r5, r5, #24
100003b0:	2000      	movs	r0, #0
100003b2:	626b      	str	r3, [r5, #36]	; 0x24
100003b4:	f000 f83a 	bl	1000042c <gpio_init>
100003b8:	aa02      	add	r2, sp, #8
100003ba:	2300      	movs	r3, #0
100003bc:	626c      	str	r4, [r5, #36]	; 0x24
100003be:	9201      	str	r2, [sp, #4]
100003c0:	2280      	movs	r2, #128	; 0x80
100003c2:	490a      	ldr	r1, [pc, #40]	; (100003ec <main+0x54>)
100003c4:	9300      	str	r3, [sp, #0]
100003c6:	00d2      	lsls	r2, r2, #3
100003c8:	4809      	ldr	r0, [pc, #36]	; (100003f0 <main+0x58>)
100003ca:	9302      	str	r3, [sp, #8]
100003cc:	9303      	str	r3, [sp, #12]
100003ce:	f001 fe21 	bl	10002014 <xTaskCreate>
100003d2:	2280      	movs	r2, #128	; 0x80
100003d4:	ab03      	add	r3, sp, #12
100003d6:	4907      	ldr	r1, [pc, #28]	; (100003f4 <main+0x5c>)
100003d8:	9301      	str	r3, [sp, #4]
100003da:	00d2      	lsls	r2, r2, #3
100003dc:	2300      	movs	r3, #0
100003de:	4806      	ldr	r0, [pc, #24]	; (100003f8 <main+0x60>)
100003e0:	9400      	str	r4, [sp, #0]
100003e2:	f001 fe17 	bl	10002014 <xTaskCreate>
100003e6:	f002 f925 	bl	10002634 <vTaskStartScheduler>
100003ea:	e7fe      	b.n	100003ea <main+0x52>
100003ec:	10005040 	.word	0x10005040
100003f0:	1000035d 	.word	0x1000035d
100003f4:	1000504c 	.word	0x1000504c
100003f8:	1000037d 	.word	0x1000037d

100003fc <gpio_set_function>:
100003fc:	4a09      	ldr	r2, [pc, #36]	; (10000424 <gpio_set_function+0x28>)
100003fe:	0083      	lsls	r3, r0, #2
10000400:	4694      	mov	ip, r2
10000402:	2240      	movs	r2, #64	; 0x40
10000404:	4463      	add	r3, ip
10000406:	b510      	push	{r4, lr}
10000408:	681c      	ldr	r4, [r3, #0]
1000040a:	00c0      	lsls	r0, r0, #3
1000040c:	4062      	eors	r2, r4
1000040e:	24c0      	movs	r4, #192	; 0xc0
10000410:	4014      	ands	r4, r2
10000412:	2280      	movs	r2, #128	; 0x80
10000414:	0152      	lsls	r2, r2, #5
10000416:	4313      	orrs	r3, r2
10000418:	601c      	str	r4, [r3, #0]
1000041a:	4b03      	ldr	r3, [pc, #12]	; (10000428 <gpio_set_function+0x2c>)
1000041c:	469c      	mov	ip, r3
1000041e:	4460      	add	r0, ip
10000420:	6041      	str	r1, [r0, #4]
10000422:	bd10      	pop	{r4, pc}
10000424:	4001c004 	.word	0x4001c004
10000428:	40014000 	.word	0x40014000

1000042c <gpio_init>:
1000042c:	2301      	movs	r3, #1
1000042e:	22d0      	movs	r2, #208	; 0xd0
10000430:	4083      	lsls	r3, r0
10000432:	0612      	lsls	r2, r2, #24
10000434:	6293      	str	r3, [r2, #40]	; 0x28
10000436:	6193      	str	r3, [r2, #24]
10000438:	4a09      	ldr	r2, [pc, #36]	; (10000460 <gpio_init+0x34>)
1000043a:	0083      	lsls	r3, r0, #2
1000043c:	4694      	mov	ip, r2
1000043e:	2240      	movs	r2, #64	; 0x40
10000440:	4463      	add	r3, ip
10000442:	6819      	ldr	r1, [r3, #0]
10000444:	00c0      	lsls	r0, r0, #3
10000446:	404a      	eors	r2, r1
10000448:	21c0      	movs	r1, #192	; 0xc0
1000044a:	4011      	ands	r1, r2
1000044c:	2280      	movs	r2, #128	; 0x80
1000044e:	0152      	lsls	r2, r2, #5
10000450:	4313      	orrs	r3, r2
10000452:	6019      	str	r1, [r3, #0]
10000454:	4b03      	ldr	r3, [pc, #12]	; (10000464 <gpio_init+0x38>)
10000456:	469c      	mov	ip, r3
10000458:	2305      	movs	r3, #5
1000045a:	4460      	add	r0, ip
1000045c:	6043      	str	r3, [r0, #4]
1000045e:	4770      	bx	lr
10000460:	4001c004 	.word	0x4001c004
10000464:	40014000 	.word	0x40014000

10000468 <hw_claim_or_assert>:
10000468:	b5f8      	push	{r3, r4, r5, r6, r7, lr}
1000046a:	f3ef 8710 	mrs	r7, PRIMASK
1000046e:	b672      	cpsid	i
10000470:	4e0e      	ldr	r6, [pc, #56]	; (100004ac <hw_claim_or_assert+0x44>)
10000472:	6833      	ldr	r3, [r6, #0]
10000474:	2b00      	cmp	r3, #0
10000476:	d0fc      	beq.n	10000472 <hw_claim_or_assert+0xa>
10000478:	f3bf 8f5f 	dmb	sy
1000047c:	08cb      	lsrs	r3, r1, #3
1000047e:	18c4      	adds	r4, r0, r3
10000480:	2507      	movs	r5, #7
10000482:	46a4      	mov	ip, r4
10000484:	5cc4      	ldrb	r4, [r0, r3]
10000486:	2301      	movs	r3, #1
10000488:	400d      	ands	r5, r1
1000048a:	40ab      	lsls	r3, r5
1000048c:	0018      	movs	r0, r3
1000048e:	4020      	ands	r0, r4
10000490:	4223      	tst	r3, r4
10000492:	d108      	bne.n	100004a6 <hw_claim_or_assert+0x3e>
10000494:	4662      	mov	r2, ip
10000496:	4323      	orrs	r3, r4
10000498:	7013      	strb	r3, [r2, #0]
1000049a:	f3bf 8f5f 	dmb	sy
1000049e:	6030      	str	r0, [r6, #0]
100004a0:	f387 8810 	msr	PRIMASK, r7
100004a4:	bdf8      	pop	{r3, r4, r5, r6, r7, pc}
100004a6:	0010      	movs	r0, r2
100004a8:	f000 fe24 	bl	100010f4 <panic>
100004ac:	d000012c 	.word	0xd000012c

100004b0 <running_on_fpga>:
100004b0:	4b02      	ldr	r3, [pc, #8]	; (100004bc <running_on_fpga+0xc>)
100004b2:	6818      	ldr	r0, [r3, #0]
100004b4:	0780      	lsls	r0, r0, #30
100004b6:	0fc0      	lsrs	r0, r0, #31
100004b8:	4770      	bx	lr
100004ba:	46c0      	nop			; (mov r8, r8)
100004bc:	4006c000 	.word	0x4006c000

100004c0 <spin_locks_reset>:
100004c0:	2100      	movs	r1, #0
100004c2:	4b04      	ldr	r3, [pc, #16]	; (100004d4 <spin_locks_reset+0x14>)
100004c4:	4a04      	ldr	r2, [pc, #16]	; (100004d8 <spin_locks_reset+0x18>)
100004c6:	f3bf 8f5f 	dmb	sy
100004ca:	c302      	stmia	r3!, {r1}
100004cc:	4293      	cmp	r3, r2
100004ce:	d1fa      	bne.n	100004c6 <spin_locks_reset+0x6>
100004d0:	4770      	bx	lr
100004d2:	46c0      	nop			; (mov r8, r8)
100004d4:	d0000100 	.word	0xd0000100
100004d8:	d0000180 	.word	0xd0000180

100004dc <next_striped_spin_lock_num>:
100004dc:	4a04      	ldr	r2, [pc, #16]	; (100004f0 <next_striped_spin_lock_num+0x14>)
100004de:	7810      	ldrb	r0, [r2, #0]
100004e0:	1c43      	adds	r3, r0, #1
100004e2:	b2db      	uxtb	r3, r3
100004e4:	2b17      	cmp	r3, #23
100004e6:	d900      	bls.n	100004ea <next_striped_spin_lock_num+0xe>
100004e8:	2310      	movs	r3, #16
100004ea:	7013      	strb	r3, [r2, #0]
100004ec:	4770      	bx	lr
100004ee:	46c0      	nop			; (mov r8, r8)
100004f0:	2000017c 	.word	0x2000017c

100004f4 <uart_init>:
100004f4:	b5f8      	push	{r3, r4, r5, r6, r7, lr}
100004f6:	0004      	movs	r4, r0
100004f8:	2006      	movs	r0, #6
100004fa:	000d      	movs	r5, r1
100004fc:	f000 ff76 	bl	100013ec <clock_get_hz>
10000500:	2800      	cmp	r0, #0
10000502:	d045      	beq.n	10000590 <uart_init+0x9c>
10000504:	4b2b      	ldr	r3, [pc, #172]	; (100005b4 <uart_init+0xc0>)
10000506:	492c      	ldr	r1, [pc, #176]	; (100005b8 <uart_init+0xc4>)
10000508:	18e3      	adds	r3, r4, r3
1000050a:	425a      	negs	r2, r3
1000050c:	4153      	adcs	r3, r2
1000050e:	2280      	movs	r2, #128	; 0x80
10000510:	03d2      	lsls	r2, r2, #15
10000512:	4694      	mov	ip, r2
10000514:	425b      	negs	r3, r3
10000516:	4013      	ands	r3, r2
10000518:	4a28      	ldr	r2, [pc, #160]	; (100005bc <uart_init+0xc8>)
1000051a:	4463      	add	r3, ip
1000051c:	6013      	str	r3, [r2, #0]
1000051e:	4a28      	ldr	r2, [pc, #160]	; (100005c0 <uart_init+0xcc>)
10000520:	6013      	str	r3, [r2, #0]
10000522:	0018      	movs	r0, r3
10000524:	688a      	ldr	r2, [r1, #8]
10000526:	4390      	bics	r0, r2
10000528:	d1fb      	bne.n	10000522 <uart_init+0x2e>
1000052a:	4b22      	ldr	r3, [pc, #136]	; (100005b4 <uart_init+0xc0>)
1000052c:	2180      	movs	r1, #128	; 0x80
1000052e:	18e3      	adds	r3, r4, r3
10000530:	425a      	negs	r2, r3
10000532:	4153      	adcs	r3, r2
10000534:	4a23      	ldr	r2, [pc, #140]	; (100005c4 <uart_init+0xd0>)
10000536:	005b      	lsls	r3, r3, #1
10000538:	0049      	lsls	r1, r1, #1
1000053a:	2006      	movs	r0, #6
1000053c:	5299      	strh	r1, [r3, r2]
1000053e:	f000 ff55 	bl	100013ec <clock_get_hz>
10000542:	0029      	movs	r1, r5
10000544:	00c0      	lsls	r0, r0, #3
10000546:	f001 f9a9 	bl	1000189c <__wrap___aeabi_uidiv>
1000054a:	09c3      	lsrs	r3, r0, #7
1000054c:	d121      	bne.n	10000592 <uart_init+0x9e>
1000054e:	2740      	movs	r7, #64	; 0x40
10000550:	2201      	movs	r2, #1
10000552:	0026      	movs	r6, r4
10000554:	2580      	movs	r5, #128	; 0x80
10000556:	6262      	str	r2, [r4, #36]	; 0x24
10000558:	62a3      	str	r3, [r4, #40]	; 0x28
1000055a:	2300      	movs	r3, #0
1000055c:	362c      	adds	r6, #44	; 0x2c
1000055e:	01ad      	lsls	r5, r5, #6
10000560:	4335      	orrs	r5, r6
10000562:	602b      	str	r3, [r5, #0]
10000564:	2006      	movs	r0, #6
10000566:	f000 ff41 	bl	100013ec <clock_get_hz>
1000056a:	0039      	movs	r1, r7
1000056c:	0080      	lsls	r0, r0, #2
1000056e:	f001 f995 	bl	1000189c <__wrap___aeabi_uidiv>
10000572:	2360      	movs	r3, #96	; 0x60
10000574:	6ae2      	ldr	r2, [r4, #44]	; 0x2c
10000576:	4053      	eors	r3, r2
10000578:	226e      	movs	r2, #110	; 0x6e
1000057a:	401a      	ands	r2, r3
1000057c:	2380      	movs	r3, #128	; 0x80
1000057e:	015b      	lsls	r3, r3, #5
10000580:	4333      	orrs	r3, r6
10000582:	601a      	str	r2, [r3, #0]
10000584:	4b10      	ldr	r3, [pc, #64]	; (100005c8 <uart_init+0xd4>)
10000586:	6323      	str	r3, [r4, #48]	; 0x30
10000588:	2310      	movs	r3, #16
1000058a:	602b      	str	r3, [r5, #0]
1000058c:	3b0d      	subs	r3, #13
1000058e:	64a3      	str	r3, [r4, #72]	; 0x48
10000590:	bdf8      	pop	{r3, r4, r5, r6, r7, pc}
10000592:	4a0e      	ldr	r2, [pc, #56]	; (100005cc <uart_init+0xd8>)
10000594:	4293      	cmp	r3, r2
10000596:	d903      	bls.n	100005a0 <uart_init+0xac>
10000598:	2300      	movs	r3, #0
1000059a:	4f0d      	ldr	r7, [pc, #52]	; (100005d0 <uart_init+0xdc>)
1000059c:	4a0d      	ldr	r2, [pc, #52]	; (100005d4 <uart_init+0xe0>)
1000059e:	e7d8      	b.n	10000552 <uart_init+0x5e>
100005a0:	227f      	movs	r2, #127	; 0x7f
100005a2:	4010      	ands	r0, r2
100005a4:	3001      	adds	r0, #1
100005a6:	0840      	lsrs	r0, r0, #1
100005a8:	019f      	lsls	r7, r3, #6
100005aa:	001a      	movs	r2, r3
100005ac:	183f      	adds	r7, r7, r0
100005ae:	0003      	movs	r3, r0
100005b0:	e7cf      	b.n	10000552 <uart_init+0x5e>
100005b2:	46c0      	nop			; (mov r8, r8)
100005b4:	bffc8000 	.word	0xbffc8000
100005b8:	4000c000 	.word	0x4000c000
100005bc:	4000e000 	.word	0x4000e000
100005c0:	4000f000 	.word	0x4000f000
100005c4:	2000c8b0 	.word	0x2000c8b0
100005c8:	00000301 	.word	0x00000301
100005cc:	0000fffe 	.word	0x0000fffe
100005d0:	003fffc0 	.word	0x003fffc0
100005d4:	0000ffff 	.word	0x0000ffff

100005d8 <timer_pool_entry_comparator>:
100005d8:	6883      	ldr	r3, [r0, #8]
100005da:	480b      	ldr	r0, [pc, #44]	; (10000608 <timer_pool_entry_comparator+0x30>)
100005dc:	b510      	push	{r4, lr}
100005de:	4684      	mov	ip, r0
100005e0:	4461      	add	r1, ip
100005e2:	4462      	add	r2, ip
100005e4:	0109      	lsls	r1, r1, #4
100005e6:	0112      	lsls	r2, r2, #4
100005e8:	189a      	adds	r2, r3, r2
100005ea:	1859      	adds	r1, r3, r1
100005ec:	6854      	ldr	r4, [r2, #4]
100005ee:	684b      	ldr	r3, [r1, #4]
100005f0:	2001      	movs	r0, #1
100005f2:	429c      	cmp	r4, r3
100005f4:	d801      	bhi.n	100005fa <timer_pool_entry_comparator+0x22>
100005f6:	d002      	beq.n	100005fe <timer_pool_entry_comparator+0x26>
100005f8:	2000      	movs	r0, #0
100005fa:	b2c0      	uxtb	r0, r0
100005fc:	bd10      	pop	{r4, pc}
100005fe:	6812      	ldr	r2, [r2, #0]
10000600:	680b      	ldr	r3, [r1, #0]
10000602:	429a      	cmp	r2, r3
10000604:	d8f9      	bhi.n	100005fa <timer_pool_entry_comparator+0x22>
10000606:	e7f7      	b.n	100005f8 <timer_pool_entry_comparator+0x20>
10000608:	0fffffff 	.word	0x0fffffff

1000060c <add_alarm_under_lock>:
1000060c:	b5f8      	push	{r3, r4, r5, r6, r7, lr}
1000060e:	4657      	mov	r7, sl
10000610:	4645      	mov	r5, r8
10000612:	464e      	mov	r6, r9
10000614:	46de      	mov	lr, fp
10000616:	b5e0      	push	{r5, r6, r7, lr}
10000618:	4699      	mov	r9, r3
1000061a:	ab0c      	add	r3, sp, #48	; 0x30
1000061c:	7819      	ldrb	r1, [r3, #0]
1000061e:	ab0d      	add	r3, sp, #52	; 0x34
10000620:	781b      	ldrb	r3, [r3, #0]
10000622:	0005      	movs	r5, r0
10000624:	4690      	mov	r8, r2
10000626:	469a      	mov	sl, r3
10000628:	6807      	ldr	r7, [r0, #0]
1000062a:	2900      	cmp	r1, #0
1000062c:	d112      	bne.n	10000654 <add_alarm_under_lock+0x48>
1000062e:	7bbe      	ldrb	r6, [r7, #14]
10000630:	2e00      	cmp	r6, #0
10000632:	d045      	beq.n	100006c0 <add_alarm_under_lock+0xb4>
10000634:	0074      	lsls	r4, r6, #1
10000636:	683b      	ldr	r3, [r7, #0]
10000638:	19a4      	adds	r4, r4, r6
1000063a:	3c03      	subs	r4, #3
1000063c:	191b      	adds	r3, r3, r4
1000063e:	785a      	ldrb	r2, [r3, #1]
10000640:	0031      	movs	r1, r6
10000642:	73ba      	strb	r2, [r7, #14]
10000644:	2a00      	cmp	r2, #0
10000646:	d100      	bne.n	1000064a <add_alarm_under_lock+0x3e>
10000648:	73fa      	strb	r2, [r7, #15]
1000064a:	2200      	movs	r2, #0
1000064c:	709a      	strb	r2, [r3, #2]
1000064e:	705a      	strb	r2, [r3, #1]
10000650:	701a      	strb	r2, [r3, #0]
10000652:	e003      	b.n	1000065c <add_alarm_under_lock+0x50>
10000654:	000e      	movs	r6, r1
10000656:	004c      	lsls	r4, r1, #1
10000658:	1864      	adds	r4, r4, r1
1000065a:	3c03      	subs	r4, #3
1000065c:	4b2c      	ldr	r3, [pc, #176]	; (10000710 <add_alarm_under_lock+0x104>)
1000065e:	2200      	movs	r2, #0
10000660:	469c      	mov	ip, r3
10000662:	68ab      	ldr	r3, [r5, #8]
10000664:	4461      	add	r1, ip
10000666:	469c      	mov	ip, r3
10000668:	4643      	mov	r3, r8
1000066a:	0109      	lsls	r1, r1, #4
1000066c:	4461      	add	r1, ip
1000066e:	600b      	str	r3, [r1, #0]
10000670:	464b      	mov	r3, r9
10000672:	604b      	str	r3, [r1, #4]
10000674:	9b0a      	ldr	r3, [sp, #40]	; 0x28
10000676:	608b      	str	r3, [r1, #8]
10000678:	9b0b      	ldr	r3, [sp, #44]	; 0x2c
1000067a:	60cb      	str	r3, [r1, #12]
1000067c:	683b      	ldr	r3, [r7, #0]
1000067e:	191b      	adds	r3, r3, r4
10000680:	709a      	strb	r2, [r3, #2]
10000682:	705a      	strb	r2, [r3, #1]
10000684:	701a      	strb	r2, [r3, #0]
10000686:	7b7b      	ldrb	r3, [r7, #13]
10000688:	469b      	mov	fp, r3
1000068a:	2b00      	cmp	r3, #0
1000068c:	d02c      	beq.n	100006e8 <add_alarm_under_lock+0xdc>
1000068e:	0032      	movs	r2, r6
10000690:	4659      	mov	r1, fp
10000692:	68b8      	ldr	r0, [r7, #8]
10000694:	687b      	ldr	r3, [r7, #4]
10000696:	4798      	blx	r3
10000698:	683a      	ldr	r2, [r7, #0]
1000069a:	2800      	cmp	r0, #0
1000069c:	d017      	beq.n	100006ce <add_alarm_under_lock+0xc2>
1000069e:	465b      	mov	r3, fp
100006a0:	4658      	mov	r0, fp
100006a2:	005b      	lsls	r3, r3, #1
100006a4:	445b      	add	r3, fp
100006a6:	1914      	adds	r4, r2, r4
100006a8:	3b03      	subs	r3, #3
100006aa:	70a0      	strb	r0, [r4, #2]
100006ac:	18d1      	adds	r1, r2, r3
100006ae:	5cd3      	ldrb	r3, [r2, r3]
100006b0:	2b00      	cmp	r3, #0
100006b2:	d000      	beq.n	100006b6 <add_alarm_under_lock+0xaa>
100006b4:	7063      	strb	r3, [r4, #1]
100006b6:	465b      	mov	r3, fp
100006b8:	700e      	strb	r6, [r1, #0]
100006ba:	737b      	strb	r3, [r7, #13]
100006bc:	45b3      	cmp	fp, r6
100006be:	d014      	beq.n	100006ea <add_alarm_under_lock+0xde>
100006c0:	0030      	movs	r0, r6
100006c2:	bc3c      	pop	{r2, r3, r4, r5}
100006c4:	4690      	mov	r8, r2
100006c6:	4699      	mov	r9, r3
100006c8:	46a2      	mov	sl, r4
100006ca:	46ab      	mov	fp, r5
100006cc:	bdf8      	pop	{r3, r4, r5, r6, r7, pc}
100006ce:	465b      	mov	r3, fp
100006d0:	005b      	lsls	r3, r3, #1
100006d2:	445b      	add	r3, fp
100006d4:	3b03      	subs	r3, #3
100006d6:	18d3      	adds	r3, r2, r3
100006d8:	709e      	strb	r6, [r3, #2]
100006da:	1911      	adds	r1, r2, r4
100006dc:	5d12      	ldrb	r2, [r2, r4]
100006de:	2a00      	cmp	r2, #0
100006e0:	d000      	beq.n	100006e4 <add_alarm_under_lock+0xd8>
100006e2:	705a      	strb	r2, [r3, #1]
100006e4:	465b      	mov	r3, fp
100006e6:	700b      	strb	r3, [r1, #0]
100006e8:	737e      	strb	r6, [r7, #13]
100006ea:	4642      	mov	r2, r8
100006ec:	464b      	mov	r3, r9
100006ee:	7d28      	ldrb	r0, [r5, #20]
100006f0:	f000 f9de 	bl	10000ab0 <hardware_alarm_set_target>
100006f4:	1e04      	subs	r4, r0, #0
100006f6:	d006      	beq.n	10000706 <add_alarm_under_lock+0xfa>
100006f8:	4653      	mov	r3, sl
100006fa:	2b00      	cmp	r3, #0
100006fc:	d103      	bne.n	10000706 <add_alarm_under_lock+0xfa>
100006fe:	0031      	movs	r1, r6
10000700:	6828      	ldr	r0, [r5, #0]
10000702:	f000 fc3f 	bl	10000f84 <ph_remove_and_free_node>
10000706:	9b0e      	ldr	r3, [sp, #56]	; 0x38
10000708:	2b00      	cmp	r3, #0
1000070a:	d0d9      	beq.n	100006c0 <add_alarm_under_lock+0xb4>
1000070c:	701c      	strb	r4, [r3, #0]
1000070e:	e7d7      	b.n	100006c0 <add_alarm_under_lock+0xb4>
10000710:	0fffffff 	.word	0x0fffffff

10000714 <alarm_pool_alarm_callback>:
10000714:	b5f0      	push	{r4, r5, r6, r7, lr}
10000716:	46de      	mov	lr, fp
10000718:	464e      	mov	r6, r9
1000071a:	4657      	mov	r7, sl
1000071c:	4645      	mov	r5, r8
1000071e:	2300      	movs	r3, #0
10000720:	b5e0      	push	{r5, r6, r7, lr}
10000722:	b08d      	sub	sp, #52	; 0x34
10000724:	930a      	str	r3, [sp, #40]	; 0x28
10000726:	4b6b      	ldr	r3, [pc, #428]	; (100008d4 <alarm_pool_alarm_callback+0x1c0>)
10000728:	0082      	lsls	r2, r0, #2
1000072a:	58d3      	ldr	r3, [r2, r3]
1000072c:	900b      	str	r0, [sp, #44]	; 0x2c
1000072e:	4699      	mov	r9, r3
10000730:	2300      	movs	r3, #0
10000732:	469b      	mov	fp, r3
10000734:	464b      	mov	r3, r9
10000736:	9307      	str	r3, [sp, #28]
10000738:	f000 f96a 	bl	10000a10 <time_us_64>
1000073c:	9c07      	ldr	r4, [sp, #28]
1000073e:	0006      	movs	r6, r0
10000740:	000f      	movs	r7, r1
10000742:	6862      	ldr	r2, [r4, #4]
10000744:	f3ef 8510 	mrs	r5, PRIMASK
10000748:	b672      	cpsid	i
1000074a:	6813      	ldr	r3, [r2, #0]
1000074c:	2b00      	cmp	r3, #0
1000074e:	d0fc      	beq.n	1000074a <alarm_pool_alarm_callback+0x36>
10000750:	0022      	movs	r2, r4
10000752:	9407      	str	r4, [sp, #28]
10000754:	f3bf 8f5f 	dmb	sy
10000758:	6824      	ldr	r4, [r4, #0]
1000075a:	7b63      	ldrb	r3, [r4, #13]
1000075c:	4699      	mov	r9, r3
1000075e:	2b00      	cmp	r3, #0
10000760:	d067      	beq.n	10000832 <alarm_pool_alarm_callback+0x11e>
10000762:	6892      	ldr	r2, [r2, #8]
10000764:	4b5c      	ldr	r3, [pc, #368]	; (100008d8 <alarm_pool_alarm_callback+0x1c4>)
10000766:	4690      	mov	r8, r2
10000768:	444b      	add	r3, r9
1000076a:	011b      	lsls	r3, r3, #4
1000076c:	4498      	add	r8, r3
1000076e:	4643      	mov	r3, r8
10000770:	681a      	ldr	r2, [r3, #0]
10000772:	685b      	ldr	r3, [r3, #4]
10000774:	0010      	movs	r0, r2
10000776:	0019      	movs	r1, r3
10000778:	1b80      	subs	r0, r0, r6
1000077a:	41b9      	sbcs	r1, r7
1000077c:	2900      	cmp	r1, #0
1000077e:	dd5f      	ble.n	10000840 <alarm_pool_alarm_callback+0x12c>
10000780:	980b      	ldr	r0, [sp, #44]	; 0x2c
10000782:	f000 f995 	bl	10000ab0 <hardware_alarm_set_target>
10000786:	2300      	movs	r3, #0
10000788:	2600      	movs	r6, #0
1000078a:	4698      	mov	r8, r3
1000078c:	2700      	movs	r7, #0
1000078e:	469a      	mov	sl, r3
10000790:	9c07      	ldr	r4, [sp, #28]
10000792:	6863      	ldr	r3, [r4, #4]
10000794:	f3bf 8f5f 	dmb	sy
10000798:	465a      	mov	r2, fp
1000079a:	601a      	str	r2, [r3, #0]
1000079c:	f385 8810 	msr	PRIMASK, r5
100007a0:	4653      	mov	r3, sl
100007a2:	2b00      	cmp	r3, #0
100007a4:	d108      	bne.n	100007b8 <alarm_pool_alarm_callback+0xa4>
100007a6:	2800      	cmp	r0, #0
100007a8:	d1c6      	bne.n	10000738 <alarm_pool_alarm_callback+0x24>
100007aa:	b00d      	add	sp, #52	; 0x34
100007ac:	bc3c      	pop	{r2, r3, r4, r5}
100007ae:	4690      	mov	r8, r2
100007b0:	4699      	mov	r9, r3
100007b2:	46a2      	mov	sl, r4
100007b4:	46ab      	mov	fp, r5
100007b6:	bdf0      	pop	{r4, r5, r6, r7, pc}
100007b8:	9b0a      	ldr	r3, [sp, #40]	; 0x28
100007ba:	4641      	mov	r1, r8
100007bc:	0218      	lsls	r0, r3, #8
100007be:	464b      	mov	r3, r9
100007c0:	4318      	orrs	r0, r3
100007c2:	47d0      	blx	sl
100007c4:	9008      	str	r0, [sp, #32]
100007c6:	9109      	str	r1, [sp, #36]	; 0x24
100007c8:	6862      	ldr	r2, [r4, #4]
100007ca:	f3ef 8510 	mrs	r5, PRIMASK
100007ce:	b672      	cpsid	i
100007d0:	6813      	ldr	r3, [r2, #0]
100007d2:	2b00      	cmp	r3, #0
100007d4:	d0fc      	beq.n	100007d0 <alarm_pool_alarm_callback+0xbc>
100007d6:	9407      	str	r4, [sp, #28]
100007d8:	f3bf 8f5f 	dmb	sy
100007dc:	9908      	ldr	r1, [sp, #32]
100007de:	9a09      	ldr	r2, [sp, #36]	; 0x24
100007e0:	2a00      	cmp	r2, #0
100007e2:	db48      	blt.n	10000876 <alarm_pool_alarm_callback+0x162>
100007e4:	4311      	orrs	r1, r2
100007e6:	d003      	beq.n	100007f0 <alarm_pool_alarm_callback+0xdc>
100007e8:	9b07      	ldr	r3, [sp, #28]
100007ea:	691b      	ldr	r3, [r3, #16]
100007ec:	2b00      	cmp	r3, #0
100007ee:	d15d      	bne.n	100008ac <alarm_pool_alarm_callback+0x198>
100007f0:	9b07      	ldr	r3, [sp, #28]
100007f2:	681b      	ldr	r3, [r3, #0]
100007f4:	7bda      	ldrb	r2, [r3, #15]
100007f6:	2a00      	cmp	r2, #0
100007f8:	d007      	beq.n	1000080a <alarm_pool_alarm_callback+0xf6>
100007fa:	0051      	lsls	r1, r2, #1
100007fc:	188a      	adds	r2, r1, r2
100007fe:	6819      	ldr	r1, [r3, #0]
10000800:	468c      	mov	ip, r1
10000802:	4649      	mov	r1, r9
10000804:	4462      	add	r2, ip
10000806:	3a03      	subs	r2, #3
10000808:	7051      	strb	r1, [r2, #1]
1000080a:	464a      	mov	r2, r9
1000080c:	73da      	strb	r2, [r3, #15]
1000080e:	464b      	mov	r3, r9
10000810:	9a07      	ldr	r2, [sp, #28]
10000812:	3b01      	subs	r3, #1
10000814:	68d1      	ldr	r1, [r2, #12]
10000816:	5cca      	ldrb	r2, [r1, r3]
10000818:	3201      	adds	r2, #1
1000081a:	54ca      	strb	r2, [r1, r3]
1000081c:	465b      	mov	r3, fp
1000081e:	9a07      	ldr	r2, [sp, #28]
10000820:	6113      	str	r3, [r2, #16]
10000822:	6853      	ldr	r3, [r2, #4]
10000824:	f3bf 8f5f 	dmb	sy
10000828:	465a      	mov	r2, fp
1000082a:	601a      	str	r2, [r3, #0]
1000082c:	f385 8810 	msr	PRIMASK, r5
10000830:	e782      	b.n	10000738 <alarm_pool_alarm_callback+0x24>
10000832:	2300      	movs	r3, #0
10000834:	2600      	movs	r6, #0
10000836:	4698      	mov	r8, r3
10000838:	2700      	movs	r7, #0
1000083a:	469a      	mov	sl, r3
1000083c:	2000      	movs	r0, #0
1000083e:	e7a7      	b.n	10000790 <alarm_pool_alarm_callback+0x7c>
10000840:	2900      	cmp	r1, #0
10000842:	d101      	bne.n	10000848 <alarm_pool_alarm_callback+0x134>
10000844:	2800      	cmp	r0, #0
10000846:	d19b      	bne.n	10000780 <alarm_pool_alarm_callback+0x6c>
10000848:	2100      	movs	r1, #0
1000084a:	0020      	movs	r0, r4
1000084c:	f000 fafc 	bl	10000e48 <ph_remove_head>
10000850:	4643      	mov	r3, r8
10000852:	681e      	ldr	r6, [r3, #0]
10000854:	685f      	ldr	r7, [r3, #4]
10000856:	689b      	ldr	r3, [r3, #8]
10000858:	9a07      	ldr	r2, [sp, #28]
1000085a:	469a      	mov	sl, r3
1000085c:	4643      	mov	r3, r8
1000085e:	68db      	ldr	r3, [r3, #12]
10000860:	4698      	mov	r8, r3
10000862:	68d3      	ldr	r3, [r2, #12]
10000864:	444b      	add	r3, r9
10000866:	3b01      	subs	r3, #1
10000868:	781b      	ldrb	r3, [r3, #0]
1000086a:	930a      	str	r3, [sp, #40]	; 0x28
1000086c:	021b      	lsls	r3, r3, #8
1000086e:	4303      	orrs	r3, r0
10000870:	6113      	str	r3, [r2, #16]
10000872:	2000      	movs	r0, #0
10000874:	e78c      	b.n	10000790 <alarm_pool_alarm_callback+0x7c>
10000876:	6923      	ldr	r3, [r4, #16]
10000878:	2b00      	cmp	r3, #0
1000087a:	d0b9      	beq.n	100007f0 <alarm_pool_alarm_callback+0xdc>
1000087c:	0033      	movs	r3, r6
1000087e:	003c      	movs	r4, r7
10000880:	1a5b      	subs	r3, r3, r1
10000882:	4194      	sbcs	r4, r2
10000884:	001a      	movs	r2, r3
10000886:	0023      	movs	r3, r4
10000888:	42a7      	cmp	r7, r4
1000088a:	d819      	bhi.n	100008c0 <alarm_pool_alarm_callback+0x1ac>
1000088c:	429f      	cmp	r7, r3
1000088e:	d01b      	beq.n	100008c8 <alarm_pool_alarm_callback+0x1b4>
10000890:	4659      	mov	r1, fp
10000892:	9104      	str	r1, [sp, #16]
10000894:	2101      	movs	r1, #1
10000896:	9103      	str	r1, [sp, #12]
10000898:	4649      	mov	r1, r9
1000089a:	9102      	str	r1, [sp, #8]
1000089c:	4641      	mov	r1, r8
1000089e:	9101      	str	r1, [sp, #4]
100008a0:	4651      	mov	r1, sl
100008a2:	9807      	ldr	r0, [sp, #28]
100008a4:	9100      	str	r1, [sp, #0]
100008a6:	f7ff feb1 	bl	1000060c <add_alarm_under_lock>
100008aa:	e7b7      	b.n	1000081c <alarm_pool_alarm_callback+0x108>
100008ac:	f000 f8b0 	bl	10000a10 <time_us_64>
100008b0:	9a08      	ldr	r2, [sp, #32]
100008b2:	9b09      	ldr	r3, [sp, #36]	; 0x24
100008b4:	0006      	movs	r6, r0
100008b6:	000f      	movs	r7, r1
100008b8:	1992      	adds	r2, r2, r6
100008ba:	417b      	adcs	r3, r7
100008bc:	4299      	cmp	r1, r3
100008be:	d9e5      	bls.n	1000088c <alarm_pool_alarm_callback+0x178>
100008c0:	2201      	movs	r2, #1
100008c2:	4252      	negs	r2, r2
100008c4:	17d3      	asrs	r3, r2, #31
100008c6:	e7e3      	b.n	10000890 <alarm_pool_alarm_callback+0x17c>
100008c8:	4296      	cmp	r6, r2
100008ca:	d9e1      	bls.n	10000890 <alarm_pool_alarm_callback+0x17c>
100008cc:	2201      	movs	r2, #1
100008ce:	4252      	negs	r2, r2
100008d0:	17d3      	asrs	r3, r2, #31
100008d2:	e7dd      	b.n	10000890 <alarm_pool_alarm_callback+0x17c>
100008d4:	2000c880 	.word	0x2000c880
100008d8:	0fffffff 	.word	0x0fffffff

100008dc <alarm_pool_init_default>:
100008dc:	b510      	push	{r4, lr}
100008de:	4c12      	ldr	r4, [pc, #72]	; (10000928 <alarm_pool_init_default+0x4c>)
100008e0:	6863      	ldr	r3, [r4, #4]
100008e2:	2b00      	cmp	r3, #0
100008e4:	d004      	beq.n	100008f0 <alarm_pool_init_default+0x14>
100008e6:	210a      	movs	r1, #10
100008e8:	4810      	ldr	r0, [pc, #64]	; (1000092c <alarm_pool_init_default+0x50>)
100008ea:	f000 f973 	bl	10000bd4 <lock_init>
100008ee:	bd10      	pop	{r4, pc}
100008f0:	0023      	movs	r3, r4
100008f2:	4a0f      	ldr	r2, [pc, #60]	; (10000930 <alarm_pool_init_default+0x54>)
100008f4:	2110      	movs	r1, #16
100008f6:	6820      	ldr	r0, [r4, #0]
100008f8:	f000 f9c4 	bl	10000c84 <ph_post_alloc_init>
100008fc:	2003      	movs	r0, #3
100008fe:	f000 f87b 	bl	100009f8 <hardware_alarm_claim>
10000902:	2003      	movs	r0, #3
10000904:	f000 f946 	bl	10000b94 <hardware_alarm_cancel>
10000908:	2003      	movs	r0, #3
1000090a:	490a      	ldr	r1, [pc, #40]	; (10000934 <alarm_pool_init_default+0x58>)
1000090c:	f000 f88a 	bl	10000a24 <hardware_alarm_set_callback>
10000910:	f7ff fde4 	bl	100004dc <next_striped_spin_lock_num>
10000914:	4b08      	ldr	r3, [pc, #32]	; (10000938 <alarm_pool_init_default+0x5c>)
10000916:	469c      	mov	ip, r3
10000918:	2303      	movs	r3, #3
1000091a:	4460      	add	r0, ip
1000091c:	7523      	strb	r3, [r4, #20]
1000091e:	4b07      	ldr	r3, [pc, #28]	; (1000093c <alarm_pool_init_default+0x60>)
10000920:	0080      	lsls	r0, r0, #2
10000922:	6060      	str	r0, [r4, #4]
10000924:	60dc      	str	r4, [r3, #12]
10000926:	e7de      	b.n	100008e6 <alarm_pool_init_default+0xa>
10000928:	20000180 	.word	0x20000180
1000092c:	2000c894 	.word	0x2000c894
10000930:	100005d9 	.word	0x100005d9
10000934:	10000715 	.word	0x10000715
10000938:	34000040 	.word	0x34000040
1000093c:	2000c880 	.word	0x2000c880

10000940 <hardware_alarm_irq_handler>:
10000940:	b5f0      	push	{r4, r5, r6, r7, lr}
10000942:	46d6      	mov	lr, sl
10000944:	464f      	mov	r7, r9
10000946:	4646      	mov	r6, r8
10000948:	b5c0      	push	{r6, r7, lr}
1000094a:	f3ef 8305 	mrs	r3, IPSR
1000094e:	223f      	movs	r2, #63	; 0x3f
10000950:	4013      	ands	r3, r2
10000952:	0018      	movs	r0, r3
10000954:	3810      	subs	r0, #16
10000956:	f3ef 8c10 	mrs	ip, PRIMASK
1000095a:	b672      	cpsid	i
1000095c:	4d20      	ldr	r5, [pc, #128]	; (100009e0 <hardware_alarm_irq_handler+0xa0>)
1000095e:	682a      	ldr	r2, [r5, #0]
10000960:	2a00      	cmp	r2, #0
10000962:	d0fc      	beq.n	1000095e <hardware_alarm_irq_handler+0x1e>
10000964:	f3bf 8f5f 	dmb	sy
10000968:	2201      	movs	r2, #1
1000096a:	0011      	movs	r1, r2
1000096c:	4081      	lsls	r1, r0
1000096e:	4c1d      	ldr	r4, [pc, #116]	; (100009e4 <hardware_alarm_irq_handler+0xa4>)
10000970:	4688      	mov	r8, r1
10000972:	6361      	str	r1, [r4, #52]	; 0x34
10000974:	491c      	ldr	r1, [pc, #112]	; (100009e8 <hardware_alarm_irq_handler+0xa8>)
10000976:	0017      	movs	r7, r2
10000978:	780e      	ldrb	r6, [r1, #0]
1000097a:	468a      	mov	sl, r1
1000097c:	0031      	movs	r1, r6
1000097e:	40c1      	lsrs	r1, r0
10000980:	400f      	ands	r7, r1
10000982:	420a      	tst	r2, r1
10000984:	d015      	beq.n	100009b2 <hardware_alarm_irq_handler+0x72>
10000986:	4919      	ldr	r1, [pc, #100]	; (100009ec <hardware_alarm_irq_handler+0xac>)
10000988:	0082      	lsls	r2, r0, #2
1000098a:	6a64      	ldr	r4, [r4, #36]	; 0x24
1000098c:	5851      	ldr	r1, [r2, r1]
1000098e:	428c      	cmp	r4, r1
10000990:	d319      	bcc.n	100009c6 <hardware_alarm_irq_handler+0x86>
10000992:	4b17      	ldr	r3, [pc, #92]	; (100009f0 <hardware_alarm_irq_handler+0xb0>)
10000994:	58d2      	ldr	r2, [r2, r3]
10000996:	4643      	mov	r3, r8
10000998:	439e      	bics	r6, r3
1000099a:	4653      	mov	r3, sl
1000099c:	701e      	strb	r6, [r3, #0]
1000099e:	f3bf 8f5f 	dmb	sy
100009a2:	2300      	movs	r3, #0
100009a4:	602b      	str	r3, [r5, #0]
100009a6:	f38c 8810 	msr	PRIMASK, ip
100009aa:	2a00      	cmp	r2, #0
100009ac:	d006      	beq.n	100009bc <hardware_alarm_irq_handler+0x7c>
100009ae:	4790      	blx	r2
100009b0:	e004      	b.n	100009bc <hardware_alarm_irq_handler+0x7c>
100009b2:	f3bf 8f5f 	dmb	sy
100009b6:	602f      	str	r7, [r5, #0]
100009b8:	f38c 8810 	msr	PRIMASK, ip
100009bc:	bc1c      	pop	{r2, r3, r4}
100009be:	4690      	mov	r8, r2
100009c0:	4699      	mov	r9, r3
100009c2:	46a2      	mov	sl, r4
100009c4:	bdf0      	pop	{r4, r5, r6, r7, pc}
100009c6:	4a0b      	ldr	r2, [pc, #44]	; (100009f4 <hardware_alarm_irq_handler+0xb4>)
100009c8:	009b      	lsls	r3, r3, #2
100009ca:	4690      	mov	r8, r2
100009cc:	4443      	add	r3, r8
100009ce:	681a      	ldr	r2, [r3, #0]
100009d0:	601a      	str	r2, [r3, #0]
100009d2:	f3bf 8f5f 	dmb	sy
100009d6:	2300      	movs	r3, #0
100009d8:	602b      	str	r3, [r5, #0]
100009da:	f38c 8810 	msr	PRIMASK, ip
100009de:	e7ed      	b.n	100009bc <hardware_alarm_irq_handler+0x7c>
100009e0:	d0000128 	.word	0xd0000128
100009e4:	40054000 	.word	0x40054000
100009e8:	2000c8ae 	.word	0x2000c8ae
100009ec:	2000c898 	.word	0x2000c898
100009f0:	2000c7fc 	.word	0x2000c7fc
100009f4:	40053fd0 	.word	0x40053fd0

100009f8 <hardware_alarm_claim>:
100009f8:	b510      	push	{r4, lr}
100009fa:	0001      	movs	r1, r0
100009fc:	4a02      	ldr	r2, [pc, #8]	; (10000a08 <hardware_alarm_claim+0x10>)
100009fe:	4803      	ldr	r0, [pc, #12]	; (10000a0c <hardware_alarm_claim+0x14>)
10000a00:	f7ff fd32 	bl	10000468 <hw_claim_or_assert>
10000a04:	bd10      	pop	{r4, pc}
10000a06:	46c0      	nop			; (mov r8, r8)
10000a08:	10005054 	.word	0x10005054
10000a0c:	2000c8ac 	.word	0x2000c8ac

10000a10 <time_us_64>:
10000a10:	4b03      	ldr	r3, [pc, #12]	; (10000a20 <time_us_64+0x10>)
10000a12:	6a59      	ldr	r1, [r3, #36]	; 0x24
10000a14:	000a      	movs	r2, r1
10000a16:	6a98      	ldr	r0, [r3, #40]	; 0x28
10000a18:	6a59      	ldr	r1, [r3, #36]	; 0x24
10000a1a:	428a      	cmp	r2, r1
10000a1c:	d1fa      	bne.n	10000a14 <time_us_64+0x4>
10000a1e:	4770      	bx	lr
10000a20:	40054000 	.word	0x40054000

10000a24 <hardware_alarm_set_callback>:
10000a24:	b570      	push	{r4, r5, r6, lr}
10000a26:	0004      	movs	r4, r0
10000a28:	000d      	movs	r5, r1
10000a2a:	f3ef 8610 	mrs	r6, PRIMASK
10000a2e:	b672      	cpsid	i
10000a30:	4a1a      	ldr	r2, [pc, #104]	; (10000a9c <hardware_alarm_set_callback+0x78>)
10000a32:	6813      	ldr	r3, [r2, #0]
10000a34:	2b00      	cmp	r3, #0
10000a36:	d0fc      	beq.n	10000a32 <hardware_alarm_set_callback+0xe>
10000a38:	f3bf 8f5f 	dmb	sy
10000a3c:	2d00      	cmp	r5, #0
10000a3e:	d01b      	beq.n	10000a78 <hardware_alarm_set_callback+0x54>
10000a40:	0020      	movs	r0, r4
10000a42:	f000 fceb 	bl	1000141c <irq_get_vtable_handler>
10000a46:	4916      	ldr	r1, [pc, #88]	; (10000aa0 <hardware_alarm_set_callback+0x7c>)
10000a48:	4281      	cmp	r1, r0
10000a4a:	d00a      	beq.n	10000a62 <hardware_alarm_set_callback+0x3e>
10000a4c:	0020      	movs	r0, r4
10000a4e:	f000 fced 	bl	1000142c <irq_set_exclusive_handler>
10000a52:	2101      	movs	r1, #1
10000a54:	0020      	movs	r0, r4
10000a56:	f000 fccf 	bl	100013f8 <irq_set_enabled>
10000a5a:	2301      	movs	r3, #1
10000a5c:	40a3      	lsls	r3, r4
10000a5e:	4a11      	ldr	r2, [pc, #68]	; (10000aa4 <hardware_alarm_set_callback+0x80>)
10000a60:	6013      	str	r3, [r2, #0]
10000a62:	4b11      	ldr	r3, [pc, #68]	; (10000aa8 <hardware_alarm_set_callback+0x84>)
10000a64:	00a4      	lsls	r4, r4, #2
10000a66:	50e5      	str	r5, [r4, r3]
10000a68:	f3bf 8f5f 	dmb	sy
10000a6c:	2200      	movs	r2, #0
10000a6e:	4b0b      	ldr	r3, [pc, #44]	; (10000a9c <hardware_alarm_set_callback+0x78>)
10000a70:	601a      	str	r2, [r3, #0]
10000a72:	f386 8810 	msr	PRIMASK, r6
10000a76:	bd70      	pop	{r4, r5, r6, pc}
10000a78:	4b0b      	ldr	r3, [pc, #44]	; (10000aa8 <hardware_alarm_set_callback+0x84>)
10000a7a:	00a2      	lsls	r2, r4, #2
10000a7c:	50d5      	str	r5, [r2, r3]
10000a7e:	2201      	movs	r2, #1
10000a80:	40a2      	lsls	r2, r4
10000a82:	490a      	ldr	r1, [pc, #40]	; (10000aac <hardware_alarm_set_callback+0x88>)
10000a84:	0020      	movs	r0, r4
10000a86:	780b      	ldrb	r3, [r1, #0]
10000a88:	4393      	bics	r3, r2
10000a8a:	700b      	strb	r3, [r1, #0]
10000a8c:	4904      	ldr	r1, [pc, #16]	; (10000aa0 <hardware_alarm_set_callback+0x7c>)
10000a8e:	f000 fcf7 	bl	10001480 <irq_remove_handler>
10000a92:	2100      	movs	r1, #0
10000a94:	0020      	movs	r0, r4
10000a96:	f000 fcaf 	bl	100013f8 <irq_set_enabled>
10000a9a:	e7e5      	b.n	10000a68 <hardware_alarm_set_callback+0x44>
10000a9c:	d0000128 	.word	0xd0000128
10000aa0:	10000941 	.word	0x10000941
10000aa4:	40056038 	.word	0x40056038
10000aa8:	2000c7fc 	.word	0x2000c7fc
10000aac:	2000c8ae 	.word	0x2000c8ae

10000ab0 <hardware_alarm_set_target>:
10000ab0:	b5f0      	push	{r4, r5, r6, r7, lr}
10000ab2:	464f      	mov	r7, r9
10000ab4:	46d6      	mov	lr, sl
10000ab6:	4646      	mov	r6, r8
10000ab8:	b5c0      	push	{r6, r7, lr}
10000aba:	0007      	movs	r7, r0
10000abc:	4c30      	ldr	r4, [pc, #192]	; (10000b80 <hardware_alarm_set_target+0xd0>)
10000abe:	6a61      	ldr	r1, [r4, #36]	; 0x24
10000ac0:	000d      	movs	r5, r1
10000ac2:	6aa6      	ldr	r6, [r4, #40]	; 0x28
10000ac4:	6a61      	ldr	r1, [r4, #36]	; 0x24
10000ac6:	42a9      	cmp	r1, r5
10000ac8:	d1fa      	bne.n	10000ac0 <hardware_alarm_set_target+0x10>
10000aca:	428b      	cmp	r3, r1
10000acc:	d808      	bhi.n	10000ae0 <hardware_alarm_set_target+0x30>
10000ace:	d005      	beq.n	10000adc <hardware_alarm_set_target+0x2c>
10000ad0:	2001      	movs	r0, #1
10000ad2:	bc1c      	pop	{r2, r3, r4}
10000ad4:	4690      	mov	r8, r2
10000ad6:	4699      	mov	r9, r3
10000ad8:	46a2      	mov	sl, r4
10000ada:	bdf0      	pop	{r4, r5, r6, r7, pc}
10000adc:	42b2      	cmp	r2, r6
10000ade:	d9f7      	bls.n	10000ad0 <hardware_alarm_set_target+0x20>
10000ae0:	f3ef 8910 	mrs	r9, PRIMASK
10000ae4:	b672      	cpsid	i
10000ae6:	4827      	ldr	r0, [pc, #156]	; (10000b84 <hardware_alarm_set_target+0xd4>)
10000ae8:	6801      	ldr	r1, [r0, #0]
10000aea:	2900      	cmp	r1, #0
10000aec:	d0fc      	beq.n	10000ae8 <hardware_alarm_set_target+0x38>
10000aee:	f3bf 8f5f 	dmb	sy
10000af2:	2501      	movs	r5, #1
10000af4:	4924      	ldr	r1, [pc, #144]	; (10000b88 <hardware_alarm_set_target+0xd8>)
10000af6:	40bd      	lsls	r5, r7
10000af8:	468c      	mov	ip, r1
10000afa:	7809      	ldrb	r1, [r1, #0]
10000afc:	4c20      	ldr	r4, [pc, #128]	; (10000b80 <hardware_alarm_set_target+0xd0>)
10000afe:	000e      	movs	r6, r1
10000b00:	432e      	orrs	r6, r5
10000b02:	4688      	mov	r8, r1
10000b04:	b2f1      	uxtb	r1, r6
10000b06:	468a      	mov	sl, r1
10000b08:	4661      	mov	r1, ip
10000b0a:	4650      	mov	r0, sl
10000b0c:	7008      	strb	r0, [r1, #0]
10000b0e:	1d39      	adds	r1, r7, #4
10000b10:	481e      	ldr	r0, [pc, #120]	; (10000b8c <hardware_alarm_set_target+0xdc>)
10000b12:	0089      	lsls	r1, r1, #2
10000b14:	6365      	str	r5, [r4, #52]	; 0x34
10000b16:	510a      	str	r2, [r1, r4]
10000b18:	00b9      	lsls	r1, r7, #2
10000b1a:	500b      	str	r3, [r1, r0]
10000b1c:	6a21      	ldr	r1, [r4, #32]
10000b1e:	2000      	movs	r0, #0
10000b20:	4229      	tst	r1, r5
10000b22:	d019      	beq.n	10000b58 <hardware_alarm_set_target+0xa8>
10000b24:	6a61      	ldr	r1, [r4, #36]	; 0x24
10000b26:	0008      	movs	r0, r1
10000b28:	6aa6      	ldr	r6, [r4, #40]	; 0x28
10000b2a:	6a61      	ldr	r1, [r4, #36]	; 0x24
10000b2c:	4281      	cmp	r1, r0
10000b2e:	d1fa      	bne.n	10000b26 <hardware_alarm_set_target+0x76>
10000b30:	428b      	cmp	r3, r1
10000b32:	d819      	bhi.n	10000b68 <hardware_alarm_set_target+0xb8>
10000b34:	d101      	bne.n	10000b3a <hardware_alarm_set_target+0x8a>
10000b36:	42b2      	cmp	r2, r6
10000b38:	d816      	bhi.n	10000b68 <hardware_alarm_set_target+0xb8>
10000b3a:	45c2      	cmp	sl, r8
10000b3c:	d01d      	beq.n	10000b7a <hardware_alarm_set_target+0xca>
10000b3e:	4b10      	ldr	r3, [pc, #64]	; (10000b80 <hardware_alarm_set_target+0xd0>)
10000b40:	201f      	movs	r0, #31
10000b42:	621d      	str	r5, [r3, #32]
10000b44:	635d      	str	r5, [r3, #52]	; 0x34
10000b46:	2301      	movs	r3, #1
10000b48:	4007      	ands	r7, r0
10000b4a:	40bb      	lsls	r3, r7
10000b4c:	4a10      	ldr	r2, [pc, #64]	; (10000b90 <hardware_alarm_set_target+0xe0>)
10000b4e:	381e      	subs	r0, #30
10000b50:	6013      	str	r3, [r2, #0]
10000b52:	4663      	mov	r3, ip
10000b54:	4642      	mov	r2, r8
10000b56:	701a      	strb	r2, [r3, #0]
10000b58:	f3bf 8f5f 	dmb	sy
10000b5c:	2200      	movs	r2, #0
10000b5e:	4b09      	ldr	r3, [pc, #36]	; (10000b84 <hardware_alarm_set_target+0xd4>)
10000b60:	601a      	str	r2, [r3, #0]
10000b62:	f389 8810 	msr	PRIMASK, r9
10000b66:	e7b4      	b.n	10000ad2 <hardware_alarm_set_target+0x22>
10000b68:	2000      	movs	r0, #0
10000b6a:	f3bf 8f5f 	dmb	sy
10000b6e:	2200      	movs	r2, #0
10000b70:	4b04      	ldr	r3, [pc, #16]	; (10000b84 <hardware_alarm_set_target+0xd4>)
10000b72:	601a      	str	r2, [r3, #0]
10000b74:	f389 8810 	msr	PRIMASK, r9
10000b78:	e7ab      	b.n	10000ad2 <hardware_alarm_set_target+0x22>
10000b7a:	2001      	movs	r0, #1
10000b7c:	e7ec      	b.n	10000b58 <hardware_alarm_set_target+0xa8>
10000b7e:	46c0      	nop			; (mov r8, r8)
10000b80:	40054000 	.word	0x40054000
10000b84:	d0000128 	.word	0xd0000128
10000b88:	2000c8ae 	.word	0x2000c8ae
10000b8c:	2000c898 	.word	0x2000c898
10000b90:	e000e280 	.word	0xe000e280

10000b94 <hardware_alarm_cancel>:
10000b94:	b510      	push	{r4, lr}
10000b96:	f3ef 8410 	mrs	r4, PRIMASK
10000b9a:	b672      	cpsid	i
10000b9c:	490a      	ldr	r1, [pc, #40]	; (10000bc8 <hardware_alarm_cancel+0x34>)
10000b9e:	680b      	ldr	r3, [r1, #0]
10000ba0:	2b00      	cmp	r3, #0
10000ba2:	d0fc      	beq.n	10000b9e <hardware_alarm_cancel+0xa>
10000ba4:	f3bf 8f5f 	dmb	sy
10000ba8:	2301      	movs	r3, #1
10000baa:	4083      	lsls	r3, r0
10000bac:	4a07      	ldr	r2, [pc, #28]	; (10000bcc <hardware_alarm_cancel+0x38>)
10000bae:	4808      	ldr	r0, [pc, #32]	; (10000bd0 <hardware_alarm_cancel+0x3c>)
10000bb0:	6213      	str	r3, [r2, #32]
10000bb2:	7802      	ldrb	r2, [r0, #0]
10000bb4:	439a      	bics	r2, r3
10000bb6:	7002      	strb	r2, [r0, #0]
10000bb8:	f3bf 8f5f 	dmb	sy
10000bbc:	2300      	movs	r3, #0
10000bbe:	600b      	str	r3, [r1, #0]
10000bc0:	f384 8810 	msr	PRIMASK, r4
10000bc4:	bd10      	pop	{r4, pc}
10000bc6:	46c0      	nop			; (mov r8, r8)
10000bc8:	d0000128 	.word	0xd0000128
10000bcc:	40054000 	.word	0x40054000
10000bd0:	2000c8ae 	.word	0x2000c8ae

10000bd4 <lock_init>:
10000bd4:	4b02      	ldr	r3, [pc, #8]	; (10000be0 <lock_init+0xc>)
10000bd6:	469c      	mov	ip, r3
10000bd8:	4461      	add	r1, ip
10000bda:	0089      	lsls	r1, r1, #2
10000bdc:	6001      	str	r1, [r0, #0]
10000bde:	4770      	bx	lr
10000be0:	34000040 	.word	0x34000040

10000be4 <mutex_init>:
10000be4:	b510      	push	{r4, lr}
10000be6:	0004      	movs	r4, r0
10000be8:	f7ff fc78 	bl	100004dc <next_striped_spin_lock_num>
10000bec:	0001      	movs	r1, r0
10000bee:	0020      	movs	r0, r4
10000bf0:	f7ff fff0 	bl	10000bd4 <lock_init>
10000bf4:	23ff      	movs	r3, #255	; 0xff
10000bf6:	7123      	strb	r3, [r4, #4]
10000bf8:	f3bf 8f5f 	dmb	sy
10000bfc:	bd10      	pop	{r4, pc}
10000bfe:	46c0      	nop			; (mov r8, r8)

10000c00 <recursive_mutex_init>:
10000c00:	b510      	push	{r4, lr}
10000c02:	0004      	movs	r4, r0
10000c04:	f7ff fc6a 	bl	100004dc <next_striped_spin_lock_num>
10000c08:	0001      	movs	r1, r0
10000c0a:	0020      	movs	r0, r4
10000c0c:	f7ff ffe2 	bl	10000bd4 <lock_init>
10000c10:	23ff      	movs	r3, #255	; 0xff
10000c12:	80a3      	strh	r3, [r4, #4]
10000c14:	f3bf 8f5f 	dmb	sy
10000c18:	bd10      	pop	{r4, pc}
10000c1a:	46c0      	nop			; (mov r8, r8)

10000c1c <ph_merge_nodes>:
10000c1c:	b570      	push	{r4, r5, r6, lr}
10000c1e:	0005      	movs	r5, r0
10000c20:	000e      	movs	r6, r1
10000c22:	0014      	movs	r4, r2
10000c24:	2900      	cmp	r1, #0
10000c26:	d024      	beq.n	10000c72 <ph_merge_nodes+0x56>
10000c28:	2a00      	cmp	r2, #0
10000c2a:	d024      	beq.n	10000c76 <ph_merge_nodes+0x5a>
10000c2c:	6880      	ldr	r0, [r0, #8]
10000c2e:	686b      	ldr	r3, [r5, #4]
10000c30:	4798      	blx	r3
10000c32:	6829      	ldr	r1, [r5, #0]
10000c34:	2800      	cmp	r0, #0
10000c36:	d00e      	beq.n	10000c56 <ph_merge_nodes+0x3a>
10000c38:	0063      	lsls	r3, r4, #1
10000c3a:	191b      	adds	r3, r3, r4
10000c3c:	0072      	lsls	r2, r6, #1
10000c3e:	3b03      	subs	r3, #3
10000c40:	1992      	adds	r2, r2, r6
10000c42:	18cb      	adds	r3, r1, r3
10000c44:	3a03      	subs	r2, #3
10000c46:	709e      	strb	r6, [r3, #2]
10000c48:	1888      	adds	r0, r1, r2
10000c4a:	5c8a      	ldrb	r2, [r1, r2]
10000c4c:	2a00      	cmp	r2, #0
10000c4e:	d114      	bne.n	10000c7a <ph_merge_nodes+0x5e>
10000c50:	7004      	strb	r4, [r0, #0]
10000c52:	0030      	movs	r0, r6
10000c54:	e00e      	b.n	10000c74 <ph_merge_nodes+0x58>
10000c56:	0073      	lsls	r3, r6, #1
10000c58:	199b      	adds	r3, r3, r6
10000c5a:	0062      	lsls	r2, r4, #1
10000c5c:	3b03      	subs	r3, #3
10000c5e:	1912      	adds	r2, r2, r4
10000c60:	18cb      	adds	r3, r1, r3
10000c62:	3a03      	subs	r2, #3
10000c64:	709c      	strb	r4, [r3, #2]
10000c66:	1888      	adds	r0, r1, r2
10000c68:	5c8a      	ldrb	r2, [r1, r2]
10000c6a:	2a00      	cmp	r2, #0
10000c6c:	d000      	beq.n	10000c70 <ph_merge_nodes+0x54>
10000c6e:	705a      	strb	r2, [r3, #1]
10000c70:	7006      	strb	r6, [r0, #0]
10000c72:	0020      	movs	r0, r4
10000c74:	bd70      	pop	{r4, r5, r6, pc}
10000c76:	0008      	movs	r0, r1
10000c78:	e7fc      	b.n	10000c74 <ph_merge_nodes+0x58>
10000c7a:	705a      	strb	r2, [r3, #1]
10000c7c:	7004      	strb	r4, [r0, #0]
10000c7e:	0030      	movs	r0, r6
10000c80:	e7f8      	b.n	10000c74 <ph_merge_nodes+0x58>
10000c82:	46c0      	nop			; (mov r8, r8)

10000c84 <ph_post_alloc_init>:
10000c84:	b530      	push	{r4, r5, lr}
10000c86:	6083      	str	r3, [r0, #8]
10000c88:	2300      	movs	r3, #0
10000c8a:	b2cc      	uxtb	r4, r1
10000c8c:	7343      	strb	r3, [r0, #13]
10000c8e:	3301      	adds	r3, #1
10000c90:	7304      	strb	r4, [r0, #12]
10000c92:	6042      	str	r2, [r0, #4]
10000c94:	7383      	strb	r3, [r0, #14]
10000c96:	73c4      	strb	r4, [r0, #15]
10000c98:	000d      	movs	r5, r1
10000c9a:	6800      	ldr	r0, [r0, #0]
10000c9c:	2c01      	cmp	r4, #1
10000c9e:	d906      	bls.n	10000cae <ph_post_alloc_init+0x2a>
10000ca0:	1c42      	adds	r2, r0, #1
10000ca2:	3301      	adds	r3, #1
10000ca4:	b2db      	uxtb	r3, r3
10000ca6:	7013      	strb	r3, [r2, #0]
10000ca8:	3203      	adds	r2, #3
10000caa:	429c      	cmp	r4, r3
10000cac:	d1f9      	bne.n	10000ca2 <ph_post_alloc_init+0x1e>
10000cae:	21ff      	movs	r1, #255	; 0xff
10000cb0:	4029      	ands	r1, r5
10000cb2:	004b      	lsls	r3, r1, #1
10000cb4:	1859      	adds	r1, r3, r1
10000cb6:	2300      	movs	r3, #0
10000cb8:	1840      	adds	r0, r0, r1
10000cba:	3803      	subs	r0, #3
10000cbc:	7043      	strb	r3, [r0, #1]
10000cbe:	bd30      	pop	{r4, r5, pc}

10000cc0 <ph_merge_two_pass>:
10000cc0:	b5f8      	push	{r3, r4, r5, r6, r7, lr}
10000cc2:	46ce      	mov	lr, r9
10000cc4:	4647      	mov	r7, r8
10000cc6:	0006      	movs	r6, r0
10000cc8:	000c      	movs	r4, r1
10000cca:	b580      	push	{r7, lr}
10000ccc:	2900      	cmp	r1, #0
10000cce:	d007      	beq.n	10000ce0 <ph_merge_two_pass+0x20>
10000cd0:	004d      	lsls	r5, r1, #1
10000cd2:	6803      	ldr	r3, [r0, #0]
10000cd4:	186d      	adds	r5, r5, r1
10000cd6:	3d03      	subs	r5, #3
10000cd8:	195a      	adds	r2, r3, r5
10000cda:	7857      	ldrb	r7, [r2, #1]
10000cdc:	2f00      	cmp	r7, #0
10000cde:	d104      	bne.n	10000cea <ph_merge_two_pass+0x2a>
10000ce0:	0020      	movs	r0, r4
10000ce2:	bc0c      	pop	{r2, r3}
10000ce4:	4690      	mov	r8, r2
10000ce6:	4699      	mov	r9, r3
10000ce8:	bdf8      	pop	{r3, r4, r5, r6, r7, pc}
10000cea:	0079      	lsls	r1, r7, #1
10000cec:	19c9      	adds	r1, r1, r7
10000cee:	3903      	subs	r1, #3
10000cf0:	4688      	mov	r8, r1
10000cf2:	4443      	add	r3, r8
10000cf4:	7859      	ldrb	r1, [r3, #1]
10000cf6:	4689      	mov	r9, r1
10000cf8:	2100      	movs	r1, #0
10000cfa:	7059      	strb	r1, [r3, #1]
10000cfc:	7051      	strb	r1, [r2, #1]
10000cfe:	6873      	ldr	r3, [r6, #4]
10000d00:	003a      	movs	r2, r7
10000d02:	0021      	movs	r1, r4
10000d04:	6880      	ldr	r0, [r0, #8]
10000d06:	4798      	blx	r3
10000d08:	6833      	ldr	r3, [r6, #0]
10000d0a:	2800      	cmp	r0, #0
10000d0c:	d014      	beq.n	10000d38 <ph_merge_two_pass+0x78>
10000d0e:	4642      	mov	r2, r8
10000d10:	189a      	adds	r2, r3, r2
10000d12:	7094      	strb	r4, [r2, #2]
10000d14:	1959      	adds	r1, r3, r5
10000d16:	5d5b      	ldrb	r3, [r3, r5]
10000d18:	2b00      	cmp	r3, #0
10000d1a:	d000      	beq.n	10000d1e <ph_merge_two_pass+0x5e>
10000d1c:	7053      	strb	r3, [r2, #1]
10000d1e:	700f      	strb	r7, [r1, #0]
10000d20:	0027      	movs	r7, r4
10000d22:	4649      	mov	r1, r9
10000d24:	0030      	movs	r0, r6
10000d26:	f7ff ffcb 	bl	10000cc0 <ph_merge_two_pass>
10000d2a:	0039      	movs	r1, r7
10000d2c:	0002      	movs	r2, r0
10000d2e:	0030      	movs	r0, r6
10000d30:	f7ff ff74 	bl	10000c1c <ph_merge_nodes>
10000d34:	0004      	movs	r4, r0
10000d36:	e7d3      	b.n	10000ce0 <ph_merge_two_pass+0x20>
10000d38:	4642      	mov	r2, r8
10000d3a:	4641      	mov	r1, r8
10000d3c:	195d      	adds	r5, r3, r5
10000d3e:	70af      	strb	r7, [r5, #2]
10000d40:	189a      	adds	r2, r3, r2
10000d42:	5c5b      	ldrb	r3, [r3, r1]
10000d44:	2b00      	cmp	r3, #0
10000d46:	d000      	beq.n	10000d4a <ph_merge_two_pass+0x8a>
10000d48:	706b      	strb	r3, [r5, #1]
10000d4a:	7014      	strb	r4, [r2, #0]
10000d4c:	e7e9      	b.n	10000d22 <ph_merge_two_pass+0x62>
10000d4e:	46c0      	nop			; (mov r8, r8)

10000d50 <ph_remove_any_head>:
10000d50:	b5f0      	push	{r4, r5, r6, r7, lr}
10000d52:	4657      	mov	r7, sl
10000d54:	4645      	mov	r5, r8
10000d56:	46de      	mov	lr, fp
10000d58:	464e      	mov	r6, r9
10000d5a:	b5e0      	push	{r5, r6, r7, lr}
10000d5c:	000d      	movs	r5, r1
10000d5e:	006b      	lsls	r3, r5, #1
10000d60:	6801      	ldr	r1, [r0, #0]
10000d62:	195b      	adds	r3, r3, r5
10000d64:	1edf      	subs	r7, r3, #3
10000d66:	0004      	movs	r4, r0
10000d68:	5dc8      	ldrb	r0, [r1, r7]
10000d6a:	b083      	sub	sp, #12
10000d6c:	9201      	str	r2, [sp, #4]
10000d6e:	19ca      	adds	r2, r1, r7
10000d70:	2800      	cmp	r0, #0
10000d72:	d04c      	beq.n	10000e0e <ph_remove_any_head+0xbe>
10000d74:	0043      	lsls	r3, r0, #1
10000d76:	181b      	adds	r3, r3, r0
10000d78:	3b03      	subs	r3, #3
10000d7a:	18cb      	adds	r3, r1, r3
10000d7c:	785e      	ldrb	r6, [r3, #1]
10000d7e:	46b4      	mov	ip, r6
10000d80:	2e00      	cmp	r6, #0
10000d82:	d116      	bne.n	10000db2 <ph_remove_any_head+0x62>
10000d84:	9e01      	ldr	r6, [sp, #4]
10000d86:	2e00      	cmp	r6, #0
10000d88:	d03e      	beq.n	10000e08 <ph_remove_any_head+0xb8>
10000d8a:	7be6      	ldrb	r6, [r4, #15]
10000d8c:	2e00      	cmp	r6, #0
10000d8e:	d004      	beq.n	10000d9a <ph_remove_any_head+0x4a>
10000d90:	0073      	lsls	r3, r6, #1
10000d92:	199b      	adds	r3, r3, r6
10000d94:	18cb      	adds	r3, r1, r3
10000d96:	3b03      	subs	r3, #3
10000d98:	705d      	strb	r5, [r3, #1]
10000d9a:	73e5      	strb	r5, [r4, #15]
10000d9c:	2800      	cmp	r0, #0
10000d9e:	d12f      	bne.n	10000e00 <ph_remove_any_head+0xb0>
10000da0:	2300      	movs	r3, #0
10000da2:	7053      	strb	r3, [r2, #1]
10000da4:	b003      	add	sp, #12
10000da6:	bc3c      	pop	{r2, r3, r4, r5}
10000da8:	4690      	mov	r8, r2
10000daa:	4699      	mov	r9, r3
10000dac:	46a2      	mov	sl, r4
10000dae:	46ab      	mov	fp, r5
10000db0:	bdf0      	pop	{r4, r5, r6, r7, pc}
10000db2:	0072      	lsls	r2, r6, #1
10000db4:	4462      	add	r2, ip
10000db6:	3a03      	subs	r2, #3
10000db8:	1889      	adds	r1, r1, r2
10000dba:	784a      	ldrb	r2, [r1, #1]
10000dbc:	4690      	mov	r8, r2
10000dbe:	2200      	movs	r2, #0
10000dc0:	704a      	strb	r2, [r1, #1]
10000dc2:	4691      	mov	r9, r2
10000dc4:	705a      	strb	r2, [r3, #1]
10000dc6:	0001      	movs	r1, r0
10000dc8:	0032      	movs	r2, r6
10000dca:	0020      	movs	r0, r4
10000dcc:	f7ff ff26 	bl	10000c1c <ph_merge_nodes>
10000dd0:	4643      	mov	r3, r8
10000dd2:	4682      	mov	sl, r0
10000dd4:	2b00      	cmp	r3, #0
10000dd6:	d007      	beq.n	10000de8 <ph_remove_any_head+0x98>
10000dd8:	005b      	lsls	r3, r3, #1
10000dda:	6821      	ldr	r1, [r4, #0]
10000ddc:	4443      	add	r3, r8
10000dde:	3b03      	subs	r3, #3
10000de0:	18cb      	adds	r3, r1, r3
10000de2:	785a      	ldrb	r2, [r3, #1]
10000de4:	2a00      	cmp	r2, #0
10000de6:	d116      	bne.n	10000e16 <ph_remove_any_head+0xc6>
10000de8:	4642      	mov	r2, r8
10000dea:	4651      	mov	r1, sl
10000dec:	0020      	movs	r0, r4
10000dee:	f7ff ff15 	bl	10000c1c <ph_merge_nodes>
10000df2:	6821      	ldr	r1, [r4, #0]
10000df4:	9b01      	ldr	r3, [sp, #4]
10000df6:	19ca      	adds	r2, r1, r7
10000df8:	2b00      	cmp	r3, #0
10000dfa:	d1c6      	bne.n	10000d8a <ph_remove_any_head+0x3a>
10000dfc:	2800      	cmp	r0, #0
10000dfe:	d0cf      	beq.n	10000da0 <ph_remove_any_head+0x50>
10000e00:	0043      	lsls	r3, r0, #1
10000e02:	181b      	adds	r3, r3, r0
10000e04:	3b03      	subs	r3, #3
10000e06:	18cb      	adds	r3, r1, r3
10000e08:	2100      	movs	r1, #0
10000e0a:	7099      	strb	r1, [r3, #2]
10000e0c:	e7c8      	b.n	10000da0 <ph_remove_any_head+0x50>
10000e0e:	9b01      	ldr	r3, [sp, #4]
10000e10:	2b00      	cmp	r3, #0
10000e12:	d1ba      	bne.n	10000d8a <ph_remove_any_head+0x3a>
10000e14:	e7c4      	b.n	10000da0 <ph_remove_any_head+0x50>
10000e16:	0050      	lsls	r0, r2, #1
10000e18:	1880      	adds	r0, r0, r2
10000e1a:	3803      	subs	r0, #3
10000e1c:	1809      	adds	r1, r1, r0
10000e1e:	7848      	ldrb	r0, [r1, #1]
10000e20:	4683      	mov	fp, r0
10000e22:	4648      	mov	r0, r9
10000e24:	7048      	strb	r0, [r1, #1]
10000e26:	7058      	strb	r0, [r3, #1]
10000e28:	4641      	mov	r1, r8
10000e2a:	0020      	movs	r0, r4
10000e2c:	f7ff fef6 	bl	10000c1c <ph_merge_nodes>
10000e30:	4659      	mov	r1, fp
10000e32:	4680      	mov	r8, r0
10000e34:	0020      	movs	r0, r4
10000e36:	f7ff ff43 	bl	10000cc0 <ph_merge_two_pass>
10000e3a:	4641      	mov	r1, r8
10000e3c:	0002      	movs	r2, r0
10000e3e:	0020      	movs	r0, r4
10000e40:	f7ff feec 	bl	10000c1c <ph_merge_nodes>
10000e44:	4680      	mov	r8, r0
10000e46:	e7cf      	b.n	10000de8 <ph_remove_any_head+0x98>

10000e48 <ph_remove_head>:
10000e48:	b5f0      	push	{r4, r5, r6, r7, lr}
10000e4a:	464e      	mov	r6, r9
10000e4c:	4645      	mov	r5, r8
10000e4e:	46de      	mov	lr, fp
10000e50:	4657      	mov	r7, sl
10000e52:	b5e0      	push	{r5, r6, r7, lr}
10000e54:	7b46      	ldrb	r6, [r0, #13]
10000e56:	0004      	movs	r4, r0
10000e58:	0075      	lsls	r5, r6, #1
10000e5a:	6800      	ldr	r0, [r0, #0]
10000e5c:	19ad      	adds	r5, r5, r6
10000e5e:	3d03      	subs	r5, #3
10000e60:	b083      	sub	sp, #12
10000e62:	9101      	str	r1, [sp, #4]
10000e64:	5d41      	ldrb	r1, [r0, r5]
10000e66:	1942      	adds	r2, r0, r5
10000e68:	2900      	cmp	r1, #0
10000e6a:	d04e      	beq.n	10000f0a <ph_remove_head+0xc2>
10000e6c:	004b      	lsls	r3, r1, #1
10000e6e:	185b      	adds	r3, r3, r1
10000e70:	3b03      	subs	r3, #3
10000e72:	18c3      	adds	r3, r0, r3
10000e74:	785f      	ldrb	r7, [r3, #1]
10000e76:	46bc      	mov	ip, r7
10000e78:	2f00      	cmp	r7, #0
10000e7a:	d118      	bne.n	10000eae <ph_remove_head+0x66>
10000e7c:	9d01      	ldr	r5, [sp, #4]
10000e7e:	2d00      	cmp	r5, #0
10000e80:	d040      	beq.n	10000f04 <ph_remove_head+0xbc>
10000e82:	7be5      	ldrb	r5, [r4, #15]
10000e84:	2d00      	cmp	r5, #0
10000e86:	d004      	beq.n	10000e92 <ph_remove_head+0x4a>
10000e88:	006b      	lsls	r3, r5, #1
10000e8a:	195b      	adds	r3, r3, r5
10000e8c:	18c3      	adds	r3, r0, r3
10000e8e:	3b03      	subs	r3, #3
10000e90:	705e      	strb	r6, [r3, #1]
10000e92:	73e6      	strb	r6, [r4, #15]
10000e94:	2900      	cmp	r1, #0
10000e96:	d131      	bne.n	10000efc <ph_remove_head+0xb4>
10000e98:	2300      	movs	r3, #0
10000e9a:	0030      	movs	r0, r6
10000e9c:	7053      	strb	r3, [r2, #1]
10000e9e:	7361      	strb	r1, [r4, #13]
10000ea0:	b003      	add	sp, #12
10000ea2:	bc3c      	pop	{r2, r3, r4, r5}
10000ea4:	4690      	mov	r8, r2
10000ea6:	4699      	mov	r9, r3
10000ea8:	46a2      	mov	sl, r4
10000eaa:	46ab      	mov	fp, r5
10000eac:	bdf0      	pop	{r4, r5, r6, r7, pc}
10000eae:	007a      	lsls	r2, r7, #1
10000eb0:	4462      	add	r2, ip
10000eb2:	3a03      	subs	r2, #3
10000eb4:	1880      	adds	r0, r0, r2
10000eb6:	7842      	ldrb	r2, [r0, #1]
10000eb8:	4693      	mov	fp, r2
10000eba:	2200      	movs	r2, #0
10000ebc:	7042      	strb	r2, [r0, #1]
10000ebe:	4691      	mov	r9, r2
10000ec0:	705a      	strb	r2, [r3, #1]
10000ec2:	0020      	movs	r0, r4
10000ec4:	003a      	movs	r2, r7
10000ec6:	f7ff fea9 	bl	10000c1c <ph_merge_nodes>
10000eca:	465b      	mov	r3, fp
10000ecc:	4680      	mov	r8, r0
10000ece:	2b00      	cmp	r3, #0
10000ed0:	d007      	beq.n	10000ee2 <ph_remove_head+0x9a>
10000ed2:	005b      	lsls	r3, r3, #1
10000ed4:	6821      	ldr	r1, [r4, #0]
10000ed6:	445b      	add	r3, fp
10000ed8:	3b03      	subs	r3, #3
10000eda:	18cb      	adds	r3, r1, r3
10000edc:	785a      	ldrb	r2, [r3, #1]
10000ede:	2a00      	cmp	r2, #0
10000ee0:	d117      	bne.n	10000f12 <ph_remove_head+0xca>
10000ee2:	465a      	mov	r2, fp
10000ee4:	4641      	mov	r1, r8
10000ee6:	0020      	movs	r0, r4
10000ee8:	f7ff fe98 	bl	10000c1c <ph_merge_nodes>
10000eec:	9b01      	ldr	r3, [sp, #4]
10000eee:	0001      	movs	r1, r0
10000ef0:	6820      	ldr	r0, [r4, #0]
10000ef2:	1942      	adds	r2, r0, r5
10000ef4:	2b00      	cmp	r3, #0
10000ef6:	d1c4      	bne.n	10000e82 <ph_remove_head+0x3a>
10000ef8:	2900      	cmp	r1, #0
10000efa:	d0cd      	beq.n	10000e98 <ph_remove_head+0x50>
10000efc:	004b      	lsls	r3, r1, #1
10000efe:	185b      	adds	r3, r3, r1
10000f00:	3b03      	subs	r3, #3
10000f02:	18c3      	adds	r3, r0, r3
10000f04:	2000      	movs	r0, #0
10000f06:	7098      	strb	r0, [r3, #2]
10000f08:	e7c6      	b.n	10000e98 <ph_remove_head+0x50>
10000f0a:	9b01      	ldr	r3, [sp, #4]
10000f0c:	2b00      	cmp	r3, #0
10000f0e:	d1b8      	bne.n	10000e82 <ph_remove_head+0x3a>
10000f10:	e7c2      	b.n	10000e98 <ph_remove_head+0x50>
10000f12:	0050      	lsls	r0, r2, #1
10000f14:	1880      	adds	r0, r0, r2
10000f16:	3803      	subs	r0, #3
10000f18:	1809      	adds	r1, r1, r0
10000f1a:	7848      	ldrb	r0, [r1, #1]
10000f1c:	4682      	mov	sl, r0
10000f1e:	4648      	mov	r0, r9
10000f20:	7048      	strb	r0, [r1, #1]
10000f22:	7058      	strb	r0, [r3, #1]
10000f24:	4659      	mov	r1, fp
10000f26:	0020      	movs	r0, r4
10000f28:	f7ff fe78 	bl	10000c1c <ph_merge_nodes>
10000f2c:	4653      	mov	r3, sl
10000f2e:	4683      	mov	fp, r0
10000f30:	2b00      	cmp	r3, #0
10000f32:	d007      	beq.n	10000f44 <ph_remove_head+0xfc>
10000f34:	005b      	lsls	r3, r3, #1
10000f36:	6821      	ldr	r1, [r4, #0]
10000f38:	4453      	add	r3, sl
10000f3a:	3b03      	subs	r3, #3
10000f3c:	18cb      	adds	r3, r1, r3
10000f3e:	785a      	ldrb	r2, [r3, #1]
10000f40:	2a00      	cmp	r2, #0
10000f42:	d106      	bne.n	10000f52 <ph_remove_head+0x10a>
10000f44:	4659      	mov	r1, fp
10000f46:	4652      	mov	r2, sl
10000f48:	0020      	movs	r0, r4
10000f4a:	f7ff fe67 	bl	10000c1c <ph_merge_nodes>
10000f4e:	4683      	mov	fp, r0
10000f50:	e7c7      	b.n	10000ee2 <ph_remove_head+0x9a>
10000f52:	0050      	lsls	r0, r2, #1
10000f54:	1880      	adds	r0, r0, r2
10000f56:	3803      	subs	r0, #3
10000f58:	1809      	adds	r1, r1, r0
10000f5a:	4648      	mov	r0, r9
10000f5c:	784f      	ldrb	r7, [r1, #1]
10000f5e:	7048      	strb	r0, [r1, #1]
10000f60:	7058      	strb	r0, [r3, #1]
10000f62:	4651      	mov	r1, sl
10000f64:	0020      	movs	r0, r4
10000f66:	f7ff fe59 	bl	10000c1c <ph_merge_nodes>
10000f6a:	0039      	movs	r1, r7
10000f6c:	4681      	mov	r9, r0
10000f6e:	0020      	movs	r0, r4
10000f70:	f7ff fea6 	bl	10000cc0 <ph_merge_two_pass>
10000f74:	4649      	mov	r1, r9
10000f76:	0002      	movs	r2, r0
10000f78:	0020      	movs	r0, r4
10000f7a:	f7ff fe4f 	bl	10000c1c <ph_merge_nodes>
10000f7e:	4682      	mov	sl, r0
10000f80:	e7e0      	b.n	10000f44 <ph_remove_head+0xfc>
10000f82:	46c0      	nop			; (mov r8, r8)

10000f84 <ph_remove_and_free_node>:
10000f84:	b570      	push	{r4, r5, r6, lr}
10000f86:	0004      	movs	r4, r0
10000f88:	2900      	cmp	r1, #0
10000f8a:	d02c      	beq.n	10000fe6 <ph_remove_and_free_node+0x62>
10000f8c:	7b43      	ldrb	r3, [r0, #13]
10000f8e:	428b      	cmp	r3, r1
10000f90:	d02e      	beq.n	10000ff0 <ph_remove_and_free_node+0x6c>
10000f92:	6805      	ldr	r5, [r0, #0]
10000f94:	0048      	lsls	r0, r1, #1
10000f96:	1840      	adds	r0, r0, r1
10000f98:	3803      	subs	r0, #3
10000f9a:	1828      	adds	r0, r5, r0
10000f9c:	7882      	ldrb	r2, [r0, #2]
10000f9e:	2a00      	cmp	r2, #0
10000fa0:	d021      	beq.n	10000fe6 <ph_remove_and_free_node+0x62>
10000fa2:	0053      	lsls	r3, r2, #1
10000fa4:	189b      	adds	r3, r3, r2
10000fa6:	3b03      	subs	r3, #3
10000fa8:	5cea      	ldrb	r2, [r5, r3]
10000faa:	18ee      	adds	r6, r5, r3
10000fac:	428a      	cmp	r2, r1
10000fae:	d102      	bne.n	10000fb6 <ph_remove_and_free_node+0x32>
10000fb0:	e01b      	b.n	10000fea <ph_remove_and_free_node+0x66>
10000fb2:	2a00      	cmp	r2, #0
10000fb4:	d008      	beq.n	10000fc8 <ph_remove_and_free_node+0x44>
10000fb6:	0053      	lsls	r3, r2, #1
10000fb8:	189b      	adds	r3, r3, r2
10000fba:	3b03      	subs	r3, #3
10000fbc:	18eb      	adds	r3, r5, r3
10000fbe:	785a      	ldrb	r2, [r3, #1]
10000fc0:	428a      	cmp	r2, r1
10000fc2:	d1f6      	bne.n	10000fb2 <ph_remove_and_free_node+0x2e>
10000fc4:	7842      	ldrb	r2, [r0, #1]
10000fc6:	705a      	strb	r2, [r3, #1]
10000fc8:	2300      	movs	r3, #0
10000fca:	2201      	movs	r2, #1
10000fcc:	7083      	strb	r3, [r0, #2]
10000fce:	7043      	strb	r3, [r0, #1]
10000fd0:	0020      	movs	r0, r4
10000fd2:	f7ff febd 	bl	10000d50 <ph_remove_any_head>
10000fd6:	7b61      	ldrb	r1, [r4, #13]
10000fd8:	0002      	movs	r2, r0
10000fda:	0020      	movs	r0, r4
10000fdc:	f7ff fe1e 	bl	10000c1c <ph_merge_nodes>
10000fe0:	7360      	strb	r0, [r4, #13]
10000fe2:	2001      	movs	r0, #1
10000fe4:	e000      	b.n	10000fe8 <ph_remove_and_free_node+0x64>
10000fe6:	2000      	movs	r0, #0
10000fe8:	bd70      	pop	{r4, r5, r6, pc}
10000fea:	7843      	ldrb	r3, [r0, #1]
10000fec:	7033      	strb	r3, [r6, #0]
10000fee:	e7eb      	b.n	10000fc8 <ph_remove_and_free_node+0x44>
10000ff0:	2201      	movs	r2, #1
10000ff2:	0019      	movs	r1, r3
10000ff4:	f7ff feac 	bl	10000d50 <ph_remove_any_head>
10000ff8:	7360      	strb	r0, [r4, #13]
10000ffa:	2001      	movs	r0, #1
10000ffc:	e7f4      	b.n	10000fe8 <ph_remove_and_free_node+0x64>
10000ffe:	46c0      	nop			; (mov r8, r8)

10001000 <runtime_init>:
10001000:	4b2c      	ldr	r3, [pc, #176]	; (100010b4 <runtime_init+0xb4>)
10001002:	4a2d      	ldr	r2, [pc, #180]	; (100010b8 <runtime_init+0xb8>)
10001004:	b570      	push	{r4, r5, r6, lr}
10001006:	601a      	str	r2, [r3, #0]
10001008:	4a2c      	ldr	r2, [pc, #176]	; (100010bc <runtime_init+0xbc>)
1000100a:	4b2d      	ldr	r3, [pc, #180]	; (100010c0 <runtime_init+0xc0>)
1000100c:	492d      	ldr	r1, [pc, #180]	; (100010c4 <runtime_init+0xc4>)
1000100e:	601a      	str	r2, [r3, #0]
10001010:	0010      	movs	r0, r2
10001012:	688b      	ldr	r3, [r1, #8]
10001014:	4398      	bics	r0, r3
10001016:	d1fb      	bne.n	10001010 <runtime_init+0x10>
10001018:	4c2b      	ldr	r4, [pc, #172]	; (100010c8 <runtime_init+0xc8>)
1000101a:	4b2c      	ldr	r3, [pc, #176]	; (100010cc <runtime_init+0xcc>)
1000101c:	429c      	cmp	r4, r3
1000101e:	d209      	bcs.n	10001034 <runtime_init+0x34>
10001020:	3b01      	subs	r3, #1
10001022:	1b1d      	subs	r5, r3, r4
10001024:	08ad      	lsrs	r5, r5, #2
10001026:	3501      	adds	r5, #1
10001028:	00ad      	lsls	r5, r5, #2
1000102a:	192d      	adds	r5, r5, r4
1000102c:	cc08      	ldmia	r4!, {r3}
1000102e:	4798      	blx	r3
10001030:	42ac      	cmp	r4, r5
10001032:	d1fb      	bne.n	1000102c <runtime_init+0x2c>
10001034:	f000 f87c 	bl	10001130 <clocks_init>
10001038:	4a25      	ldr	r2, [pc, #148]	; (100010d0 <runtime_init+0xd0>)
1000103a:	4b21      	ldr	r3, [pc, #132]	; (100010c0 <runtime_init+0xc0>)
1000103c:	601a      	str	r2, [r3, #0]
1000103e:	4a21      	ldr	r2, [pc, #132]	; (100010c4 <runtime_init+0xc4>)
10001040:	6893      	ldr	r3, [r2, #8]
10001042:	01db      	lsls	r3, r3, #7
10001044:	3380      	adds	r3, #128	; 0x80
10001046:	d1fb      	bne.n	10001040 <runtime_init+0x40>
10001048:	2240      	movs	r2, #64	; 0x40
1000104a:	4b22      	ldr	r3, [pc, #136]	; (100010d4 <runtime_init+0xd4>)
1000104c:	4c22      	ldr	r4, [pc, #136]	; (100010d8 <runtime_init+0xd8>)
1000104e:	4d23      	ldr	r5, [pc, #140]	; (100010dc <runtime_init+0xdc>)
10001050:	679a      	str	r2, [r3, #120]	; 0x78
10001052:	675a      	str	r2, [r3, #116]	; 0x74
10001054:	671a      	str	r2, [r3, #112]	; 0x70
10001056:	66da      	str	r2, [r3, #108]	; 0x6c
10001058:	42ac      	cmp	r4, r5
1000105a:	d208      	bcs.n	1000106e <runtime_init+0x6e>
1000105c:	6823      	ldr	r3, [r4, #0]
1000105e:	0020      	movs	r0, r4
10001060:	2b00      	cmp	r3, #0
10001062:	d021      	beq.n	100010a8 <runtime_init+0xa8>
10001064:	3408      	adds	r4, #8
10001066:	f7ff fdcb 	bl	10000c00 <recursive_mutex_init>
1000106a:	42ac      	cmp	r4, r5
1000106c:	d3f6      	bcc.n	1000105c <runtime_init+0x5c>
1000106e:	4c1c      	ldr	r4, [pc, #112]	; (100010e0 <runtime_init+0xe0>)
10001070:	4d1c      	ldr	r5, [pc, #112]	; (100010e4 <runtime_init+0xe4>)
10001072:	68a1      	ldr	r1, [r4, #8]
10001074:	22c0      	movs	r2, #192	; 0xc0
10001076:	0028      	movs	r0, r5
10001078:	f000 fd02 	bl	10001a80 <__wrap___aeabi_memcpy>
1000107c:	60a5      	str	r5, [r4, #8]
1000107e:	f7ff fa1f 	bl	100004c0 <spin_locks_reset>
10001082:	f000 fb35 	bl	100016f0 <irq_init_priorities>
10001086:	f7ff fc29 	bl	100008dc <alarm_pool_init_default>
1000108a:	4c17      	ldr	r4, [pc, #92]	; (100010e8 <runtime_init+0xe8>)
1000108c:	4b17      	ldr	r3, [pc, #92]	; (100010ec <runtime_init+0xec>)
1000108e:	429c      	cmp	r4, r3
10001090:	d209      	bcs.n	100010a6 <runtime_init+0xa6>
10001092:	3b01      	subs	r3, #1
10001094:	1b1d      	subs	r5, r3, r4
10001096:	08ad      	lsrs	r5, r5, #2
10001098:	3501      	adds	r5, #1
1000109a:	00ad      	lsls	r5, r5, #2
1000109c:	192d      	adds	r5, r5, r4
1000109e:	cc08      	ldmia	r4!, {r3}
100010a0:	4798      	blx	r3
100010a2:	42a5      	cmp	r5, r4
100010a4:	d1fb      	bne.n	1000109e <runtime_init+0x9e>
100010a6:	bd70      	pop	{r4, r5, r6, pc}
100010a8:	3408      	adds	r4, #8
100010aa:	f7ff fd9b 	bl	10000be4 <mutex_init>
100010ae:	42ac      	cmp	r4, r5
100010b0:	d3d4      	bcc.n	1000105c <runtime_init+0x5c>
100010b2:	e7dc      	b.n	1000106e <runtime_init+0x6e>
100010b4:	4000e000 	.word	0x4000e000
100010b8:	fefbcdbf 	.word	0xfefbcdbf
100010bc:	003c7ffe 	.word	0x003c7ffe
100010c0:	4000f000 	.word	0x4000f000
100010c4:	4000c000 	.word	0x4000c000
100010c8:	20000234 	.word	0x20000234
100010cc:	20000244 	.word	0x20000244
100010d0:	01ffffff 	.word	0x01ffffff
100010d4:	4001f000 	.word	0x4001f000
100010d8:	2000022c 	.word	0x2000022c
100010dc:	20000234 	.word	0x20000234
100010e0:	e000ed00 	.word	0xe000ed00
100010e4:	20000000 	.word	0x20000000
100010e8:	20000244 	.word	0x20000244
100010ec:	20000248 	.word	0x20000248

100010f0 <exit>:
100010f0:	be00      	bkpt	0x0000
100010f2:	e7fd      	b.n	100010f0 <exit>

100010f4 <panic>:
100010f4:	b40f      	push	{r0, r1, r2, r3}
100010f6:	b500      	push	{lr}
100010f8:	4808      	ldr	r0, [pc, #32]	; (1000111c <panic+0x28>)
100010fa:	b083      	sub	sp, #12
100010fc:	f000 fdea 	bl	10001cd4 <__wrap_puts>
10001100:	9b04      	ldr	r3, [sp, #16]
10001102:	2b00      	cmp	r3, #0
10001104:	d007      	beq.n	10001116 <panic+0x22>
10001106:	a905      	add	r1, sp, #20
10001108:	0018      	movs	r0, r3
1000110a:	9101      	str	r1, [sp, #4]
1000110c:	f000 fb78 	bl	10001800 <weak_raw_vprintf>
10001110:	4803      	ldr	r0, [pc, #12]	; (10001120 <panic+0x2c>)
10001112:	f000 fddf 	bl	10001cd4 <__wrap_puts>
10001116:	be00      	bkpt	0x0000
10001118:	e7fd      	b.n	10001116 <panic+0x22>
1000111a:	46c0      	nop			; (mov r8, r8)
1000111c:	10005078 	.word	0x10005078
10001120:	10005088 	.word	0x10005088

10001124 <hard_assertion_failure>:
10001124:	b510      	push	{r4, lr}
10001126:	4801      	ldr	r0, [pc, #4]	; (1000112c <hard_assertion_failure+0x8>)
10001128:	f7ff ffe4 	bl	100010f4 <panic>
1000112c:	1000508c 	.word	0x1000508c

10001130 <clocks_init>:
10001130:	b530      	push	{r4, r5, lr}
10001132:	200c      	movs	r0, #12
10001134:	b083      	sub	sp, #12
10001136:	f000 fb3f 	bl	100017b8 <watchdog_start_tick>
1000113a:	f7ff f9b9 	bl	100004b0 <running_on_fpga>
1000113e:	2800      	cmp	r0, #0
10001140:	d00e      	beq.n	10001160 <clocks_init+0x30>
10001142:	4b94      	ldr	r3, [pc, #592]	; (10001394 <clocks_init+0x264>)
10001144:	4a94      	ldr	r2, [pc, #592]	; (10001398 <clocks_init+0x268>)
10001146:	601a      	str	r2, [r3, #0]
10001148:	605a      	str	r2, [r3, #4]
1000114a:	609a      	str	r2, [r3, #8]
1000114c:	60da      	str	r2, [r3, #12]
1000114e:	611a      	str	r2, [r3, #16]
10001150:	615a      	str	r2, [r3, #20]
10001152:	619a      	str	r2, [r3, #24]
10001154:	61da      	str	r2, [r3, #28]
10001156:	621a      	str	r2, [r3, #32]
10001158:	4a90      	ldr	r2, [pc, #576]	; (1000139c <clocks_init+0x26c>)
1000115a:	625a      	str	r2, [r3, #36]	; 0x24
1000115c:	b003      	add	sp, #12
1000115e:	bd30      	pop	{r4, r5, pc}
10001160:	4c8f      	ldr	r4, [pc, #572]	; (100013a0 <clocks_init+0x270>)
10001162:	67a0      	str	r0, [r4, #120]	; 0x78
10001164:	f000 fb30 	bl	100017c8 <xosc_init>
10001168:	2201      	movs	r2, #1
1000116a:	4b8e      	ldr	r3, [pc, #568]	; (100013a4 <clocks_init+0x274>)
1000116c:	601a      	str	r2, [r3, #0]
1000116e:	6c63      	ldr	r3, [r4, #68]	; 0x44
10001170:	2b01      	cmp	r3, #1
10001172:	d1fc      	bne.n	1000116e <clocks_init+0x3e>
10001174:	2203      	movs	r2, #3
10001176:	4b8c      	ldr	r3, [pc, #560]	; (100013a8 <clocks_init+0x278>)
10001178:	601a      	str	r2, [r3, #0]
1000117a:	4a89      	ldr	r2, [pc, #548]	; (100013a0 <clocks_init+0x270>)
1000117c:	6b93      	ldr	r3, [r2, #56]	; 0x38
1000117e:	2b01      	cmp	r3, #1
10001180:	d1fc      	bne.n	1000117c <clocks_init+0x4c>
10001182:	2402      	movs	r4, #2
10001184:	2101      	movs	r1, #1
10001186:	4a89      	ldr	r2, [pc, #548]	; (100013ac <clocks_init+0x27c>)
10001188:	4889      	ldr	r0, [pc, #548]	; (100013b0 <clocks_init+0x280>)
1000118a:	3305      	adds	r3, #5
1000118c:	9400      	str	r4, [sp, #0]
1000118e:	f000 fac1 	bl	10001714 <pll_init>
10001192:	2305      	movs	r3, #5
10001194:	4a87      	ldr	r2, [pc, #540]	; (100013b4 <clocks_init+0x284>)
10001196:	2101      	movs	r1, #1
10001198:	4887      	ldr	r0, [pc, #540]	; (100013b8 <clocks_init+0x288>)
1000119a:	9400      	str	r4, [sp, #0]
1000119c:	f000 faba 	bl	10001714 <pll_init>
100011a0:	4b86      	ldr	r3, [pc, #536]	; (100013bc <clocks_init+0x28c>)
100011a2:	685a      	ldr	r2, [r3, #4]
100011a4:	2aff      	cmp	r2, #255	; 0xff
100011a6:	d802      	bhi.n	100011ae <clocks_init+0x7e>
100011a8:	2280      	movs	r2, #128	; 0x80
100011aa:	0052      	lsls	r2, r2, #1
100011ac:	605a      	str	r2, [r3, #4]
100011ae:	2280      	movs	r2, #128	; 0x80
100011b0:	4c78      	ldr	r4, [pc, #480]	; (10001394 <clocks_init+0x264>)
100011b2:	4b7d      	ldr	r3, [pc, #500]	; (100013a8 <clocks_init+0x278>)
100011b4:	6921      	ldr	r1, [r4, #16]
100011b6:	0112      	lsls	r2, r2, #4
100011b8:	4d80      	ldr	r5, [pc, #512]	; (100013bc <clocks_init+0x28c>)
100011ba:	601a      	str	r2, [r3, #0]
100011bc:	2900      	cmp	r1, #0
100011be:	d005      	beq.n	100011cc <clocks_init+0x9c>
100011c0:	6960      	ldr	r0, [r4, #20]
100011c2:	f000 fb6b 	bl	1000189c <__wrap___aeabi_uidiv>
100011c6:	3001      	adds	r0, #1
100011c8:	3801      	subs	r0, #1
100011ca:	d1fd      	bne.n	100011c8 <clocks_init+0x98>
100011cc:	21e0      	movs	r1, #224	; 0xe0
100011ce:	4b7b      	ldr	r3, [pc, #492]	; (100013bc <clocks_init+0x28c>)
100011d0:	2002      	movs	r0, #2
100011d2:	681a      	ldr	r2, [r3, #0]
100011d4:	4011      	ands	r1, r2
100011d6:	2280      	movs	r2, #128	; 0x80
100011d8:	0152      	lsls	r2, r2, #5
100011da:	432a      	orrs	r2, r5
100011dc:	6011      	str	r1, [r2, #0]
100011de:	6819      	ldr	r1, [r3, #0]
100011e0:	4048      	eors	r0, r1
100011e2:	2103      	movs	r1, #3
100011e4:	4001      	ands	r1, r0
100011e6:	6011      	str	r1, [r2, #0]
100011e8:	2104      	movs	r1, #4
100011ea:	689a      	ldr	r2, [r3, #8]
100011ec:	4211      	tst	r1, r2
100011ee:	d0fc      	beq.n	100011ea <clocks_init+0xba>
100011f0:	2280      	movs	r2, #128	; 0x80
100011f2:	2180      	movs	r1, #128	; 0x80
100011f4:	0192      	lsls	r2, r2, #6
100011f6:	432a      	orrs	r2, r5
100011f8:	0109      	lsls	r1, r1, #4
100011fa:	6011      	str	r1, [r2, #0]
100011fc:	2280      	movs	r2, #128	; 0x80
100011fe:	0052      	lsls	r2, r2, #1
10001200:	605a      	str	r2, [r3, #4]
10001202:	4b6f      	ldr	r3, [pc, #444]	; (100013c0 <clocks_init+0x290>)
10001204:	6123      	str	r3, [r4, #16]
10001206:	4b6f      	ldr	r3, [pc, #444]	; (100013c4 <clocks_init+0x294>)
10001208:	6859      	ldr	r1, [r3, #4]
1000120a:	29ff      	cmp	r1, #255	; 0xff
1000120c:	d800      	bhi.n	10001210 <clocks_init+0xe0>
1000120e:	605a      	str	r2, [r3, #4]
10001210:	2203      	movs	r2, #3
10001212:	486c      	ldr	r0, [pc, #432]	; (100013c4 <clocks_init+0x294>)
10001214:	4b63      	ldr	r3, [pc, #396]	; (100013a4 <clocks_init+0x274>)
10001216:	2101      	movs	r1, #1
10001218:	601a      	str	r2, [r3, #0]
1000121a:	0002      	movs	r2, r0
1000121c:	6893      	ldr	r3, [r2, #8]
1000121e:	4219      	tst	r1, r3
10001220:	d0fc      	beq.n	1000121c <clocks_init+0xec>
10001222:	25e0      	movs	r5, #224	; 0xe0
10001224:	6813      	ldr	r3, [r2, #0]
10001226:	401d      	ands	r5, r3
10001228:	2380      	movs	r3, #128	; 0x80
1000122a:	015b      	lsls	r3, r3, #5
1000122c:	4303      	orrs	r3, r0
1000122e:	601d      	str	r5, [r3, #0]
10001230:	6812      	ldr	r2, [r2, #0]
10001232:	404a      	eors	r2, r1
10001234:	2103      	movs	r1, #3
10001236:	4011      	ands	r1, r2
10001238:	6019      	str	r1, [r3, #0]
1000123a:	2102      	movs	r1, #2
1000123c:	4a61      	ldr	r2, [pc, #388]	; (100013c4 <clocks_init+0x294>)
1000123e:	6893      	ldr	r3, [r2, #8]
10001240:	4219      	tst	r1, r3
10001242:	d0fc      	beq.n	1000123e <clocks_init+0x10e>
10001244:	2380      	movs	r3, #128	; 0x80
10001246:	2180      	movs	r1, #128	; 0x80
10001248:	019b      	lsls	r3, r3, #6
1000124a:	4303      	orrs	r3, r0
1000124c:	0109      	lsls	r1, r1, #4
1000124e:	6019      	str	r1, [r3, #0]
10001250:	2180      	movs	r1, #128	; 0x80
10001252:	4b5d      	ldr	r3, [pc, #372]	; (100013c8 <clocks_init+0x298>)
10001254:	0049      	lsls	r1, r1, #1
10001256:	6051      	str	r1, [r2, #4]
10001258:	6163      	str	r3, [r4, #20]
1000125a:	4b5c      	ldr	r3, [pc, #368]	; (100013cc <clocks_init+0x29c>)
1000125c:	685a      	ldr	r2, [r3, #4]
1000125e:	2aff      	cmp	r2, #255	; 0xff
10001260:	d800      	bhi.n	10001264 <clocks_init+0x134>
10001262:	6059      	str	r1, [r3, #4]
10001264:	2280      	movs	r2, #128	; 0x80
10001266:	4b5a      	ldr	r3, [pc, #360]	; (100013d0 <clocks_init+0x2a0>)
10001268:	69e1      	ldr	r1, [r4, #28]
1000126a:	0112      	lsls	r2, r2, #4
1000126c:	4d57      	ldr	r5, [pc, #348]	; (100013cc <clocks_init+0x29c>)
1000126e:	601a      	str	r2, [r3, #0]
10001270:	2900      	cmp	r1, #0
10001272:	d005      	beq.n	10001280 <clocks_init+0x150>
10001274:	6960      	ldr	r0, [r4, #20]
10001276:	f000 fb11 	bl	1000189c <__wrap___aeabi_uidiv>
1000127a:	3001      	adds	r0, #1
1000127c:	3801      	subs	r0, #1
1000127e:	d1fd      	bne.n	1000127c <clocks_init+0x14c>
10001280:	22e0      	movs	r2, #224	; 0xe0
10001282:	4952      	ldr	r1, [pc, #328]	; (100013cc <clocks_init+0x29c>)
10001284:	680b      	ldr	r3, [r1, #0]
10001286:	401a      	ands	r2, r3
10001288:	2380      	movs	r3, #128	; 0x80
1000128a:	015b      	lsls	r3, r3, #5
1000128c:	432b      	orrs	r3, r5
1000128e:	601a      	str	r2, [r3, #0]
10001290:	2380      	movs	r3, #128	; 0x80
10001292:	2280      	movs	r2, #128	; 0x80
10001294:	019b      	lsls	r3, r3, #6
10001296:	432b      	orrs	r3, r5
10001298:	0112      	lsls	r2, r2, #4
1000129a:	601a      	str	r2, [r3, #0]
1000129c:	2280      	movs	r2, #128	; 0x80
1000129e:	4b3e      	ldr	r3, [pc, #248]	; (10001398 <clocks_init+0x268>)
100012a0:	0052      	lsls	r2, r2, #1
100012a2:	604a      	str	r2, [r1, #4]
100012a4:	61e3      	str	r3, [r4, #28]
100012a6:	4b4b      	ldr	r3, [pc, #300]	; (100013d4 <clocks_init+0x2a4>)
100012a8:	6859      	ldr	r1, [r3, #4]
100012aa:	29ff      	cmp	r1, #255	; 0xff
100012ac:	d800      	bhi.n	100012b0 <clocks_init+0x180>
100012ae:	605a      	str	r2, [r3, #4]
100012b0:	2280      	movs	r2, #128	; 0x80
100012b2:	4b49      	ldr	r3, [pc, #292]	; (100013d8 <clocks_init+0x2a8>)
100012b4:	6a21      	ldr	r1, [r4, #32]
100012b6:	0112      	lsls	r2, r2, #4
100012b8:	4d46      	ldr	r5, [pc, #280]	; (100013d4 <clocks_init+0x2a4>)
100012ba:	601a      	str	r2, [r3, #0]
100012bc:	2900      	cmp	r1, #0
100012be:	d005      	beq.n	100012cc <clocks_init+0x19c>
100012c0:	6960      	ldr	r0, [r4, #20]
100012c2:	f000 faeb 	bl	1000189c <__wrap___aeabi_uidiv>
100012c6:	3001      	adds	r0, #1
100012c8:	3801      	subs	r0, #1
100012ca:	d1fd      	bne.n	100012c8 <clocks_init+0x198>
100012cc:	22e0      	movs	r2, #224	; 0xe0
100012ce:	4941      	ldr	r1, [pc, #260]	; (100013d4 <clocks_init+0x2a4>)
100012d0:	680b      	ldr	r3, [r1, #0]
100012d2:	401a      	ands	r2, r3
100012d4:	2380      	movs	r3, #128	; 0x80
100012d6:	015b      	lsls	r3, r3, #5
100012d8:	432b      	orrs	r3, r5
100012da:	601a      	str	r2, [r3, #0]
100012dc:	2380      	movs	r3, #128	; 0x80
100012de:	2280      	movs	r2, #128	; 0x80
100012e0:	019b      	lsls	r3, r3, #6
100012e2:	432b      	orrs	r3, r5
100012e4:	0112      	lsls	r2, r2, #4
100012e6:	601a      	str	r2, [r3, #0]
100012e8:	2380      	movs	r3, #128	; 0x80
100012ea:	2280      	movs	r2, #128	; 0x80
100012ec:	005b      	lsls	r3, r3, #1
100012ee:	604b      	str	r3, [r1, #4]
100012f0:	4b29      	ldr	r3, [pc, #164]	; (10001398 <clocks_init+0x268>)
100012f2:	02d2      	lsls	r2, r2, #11
100012f4:	6223      	str	r3, [r4, #32]
100012f6:	4b39      	ldr	r3, [pc, #228]	; (100013dc <clocks_init+0x2ac>)
100012f8:	6859      	ldr	r1, [r3, #4]
100012fa:	4291      	cmp	r1, r2
100012fc:	d200      	bcs.n	10001300 <clocks_init+0x1d0>
100012fe:	605a      	str	r2, [r3, #4]
10001300:	2280      	movs	r2, #128	; 0x80
10001302:	4b37      	ldr	r3, [pc, #220]	; (100013e0 <clocks_init+0x2b0>)
10001304:	6a61      	ldr	r1, [r4, #36]	; 0x24
10001306:	0112      	lsls	r2, r2, #4
10001308:	4d34      	ldr	r5, [pc, #208]	; (100013dc <clocks_init+0x2ac>)
1000130a:	601a      	str	r2, [r3, #0]
1000130c:	2900      	cmp	r1, #0
1000130e:	d005      	beq.n	1000131c <clocks_init+0x1ec>
10001310:	6960      	ldr	r0, [r4, #20]
10001312:	f000 fac3 	bl	1000189c <__wrap___aeabi_uidiv>
10001316:	3001      	adds	r0, #1
10001318:	3801      	subs	r0, #1
1000131a:	d1fd      	bne.n	10001318 <clocks_init+0x1e8>
1000131c:	22e0      	movs	r2, #224	; 0xe0
1000131e:	492f      	ldr	r1, [pc, #188]	; (100013dc <clocks_init+0x2ac>)
10001320:	680b      	ldr	r3, [r1, #0]
10001322:	401a      	ands	r2, r3
10001324:	2380      	movs	r3, #128	; 0x80
10001326:	015b      	lsls	r3, r3, #5
10001328:	432b      	orrs	r3, r5
1000132a:	601a      	str	r2, [r3, #0]
1000132c:	2380      	movs	r3, #128	; 0x80
1000132e:	2280      	movs	r2, #128	; 0x80
10001330:	019b      	lsls	r3, r3, #6
10001332:	432b      	orrs	r3, r5
10001334:	0112      	lsls	r2, r2, #4
10001336:	601a      	str	r2, [r3, #0]
10001338:	2380      	movs	r3, #128	; 0x80
1000133a:	02db      	lsls	r3, r3, #11
1000133c:	604b      	str	r3, [r1, #4]
1000133e:	4b17      	ldr	r3, [pc, #92]	; (1000139c <clocks_init+0x26c>)
10001340:	6263      	str	r3, [r4, #36]	; 0x24
10001342:	4b28      	ldr	r3, [pc, #160]	; (100013e4 <clocks_init+0x2b4>)
10001344:	685a      	ldr	r2, [r3, #4]
10001346:	2aff      	cmp	r2, #255	; 0xff
10001348:	d802      	bhi.n	10001350 <clocks_init+0x220>
1000134a:	2280      	movs	r2, #128	; 0x80
1000134c:	0052      	lsls	r2, r2, #1
1000134e:	605a      	str	r2, [r3, #4]
10001350:	2280      	movs	r2, #128	; 0x80
10001352:	4b25      	ldr	r3, [pc, #148]	; (100013e8 <clocks_init+0x2b8>)
10001354:	69a1      	ldr	r1, [r4, #24]
10001356:	0112      	lsls	r2, r2, #4
10001358:	4d22      	ldr	r5, [pc, #136]	; (100013e4 <clocks_init+0x2b4>)
1000135a:	601a      	str	r2, [r3, #0]
1000135c:	2900      	cmp	r1, #0
1000135e:	d005      	beq.n	1000136c <clocks_init+0x23c>
10001360:	6960      	ldr	r0, [r4, #20]
10001362:	f000 fa9b 	bl	1000189c <__wrap___aeabi_uidiv>
10001366:	3001      	adds	r0, #1
10001368:	3801      	subs	r0, #1
1000136a:	d1fd      	bne.n	10001368 <clocks_init+0x238>
1000136c:	22e0      	movs	r2, #224	; 0xe0
1000136e:	491d      	ldr	r1, [pc, #116]	; (100013e4 <clocks_init+0x2b4>)
10001370:	680b      	ldr	r3, [r1, #0]
10001372:	401a      	ands	r2, r3
10001374:	2380      	movs	r3, #128	; 0x80
10001376:	015b      	lsls	r3, r3, #5
10001378:	432b      	orrs	r3, r5
1000137a:	601a      	str	r2, [r3, #0]
1000137c:	2380      	movs	r3, #128	; 0x80
1000137e:	2280      	movs	r2, #128	; 0x80
10001380:	019b      	lsls	r3, r3, #6
10001382:	432b      	orrs	r3, r5
10001384:	0112      	lsls	r2, r2, #4
10001386:	601a      	str	r2, [r3, #0]
10001388:	2380      	movs	r3, #128	; 0x80
1000138a:	005b      	lsls	r3, r3, #1
1000138c:	604b      	str	r3, [r1, #4]
1000138e:	4b0e      	ldr	r3, [pc, #56]	; (100013c8 <clocks_init+0x298>)
10001390:	61a3      	str	r3, [r4, #24]
10001392:	e6e3      	b.n	1000115c <clocks_init+0x2c>
10001394:	2000c80c 	.word	0x2000c80c
10001398:	02dc6c00 	.word	0x02dc6c00
1000139c:	0000b71b 	.word	0x0000b71b
100013a0:	40008000 	.word	0x40008000
100013a4:	4000b03c 	.word	0x4000b03c
100013a8:	4000b030 	.word	0x4000b030
100013ac:	59682f00 	.word	0x59682f00
100013b0:	40028000 	.word	0x40028000
100013b4:	1c9c3800 	.word	0x1c9c3800
100013b8:	4002c000 	.word	0x4002c000
100013bc:	40008030 	.word	0x40008030
100013c0:	00b71b00 	.word	0x00b71b00
100013c4:	4000803c 	.word	0x4000803c
100013c8:	07735940 	.word	0x07735940
100013cc:	40008054 	.word	0x40008054
100013d0:	4000b054 	.word	0x4000b054
100013d4:	40008060 	.word	0x40008060
100013d8:	4000b060 	.word	0x4000b060
100013dc:	4000806c 	.word	0x4000806c
100013e0:	4000b06c 	.word	0x4000b06c
100013e4:	40008048 	.word	0x40008048
100013e8:	4000b048 	.word	0x4000b048

100013ec <clock_get_hz>:
100013ec:	4b01      	ldr	r3, [pc, #4]	; (100013f4 <clock_get_hz+0x8>)
100013ee:	0080      	lsls	r0, r0, #2
100013f0:	58c0      	ldr	r0, [r0, r3]
100013f2:	4770      	bx	lr
100013f4:	2000c80c 	.word	0x2000c80c

100013f8 <irq_set_enabled>:
100013f8:	2301      	movs	r3, #1
100013fa:	4083      	lsls	r3, r0
100013fc:	2900      	cmp	r1, #0
100013fe:	d004      	beq.n	1000140a <irq_set_enabled+0x12>
10001400:	4a03      	ldr	r2, [pc, #12]	; (10001410 <irq_set_enabled+0x18>)
10001402:	6013      	str	r3, [r2, #0]
10001404:	4a03      	ldr	r2, [pc, #12]	; (10001414 <irq_set_enabled+0x1c>)
10001406:	6013      	str	r3, [r2, #0]
10001408:	4770      	bx	lr
1000140a:	4a03      	ldr	r2, [pc, #12]	; (10001418 <irq_set_enabled+0x20>)
1000140c:	6013      	str	r3, [r2, #0]
1000140e:	e7fb      	b.n	10001408 <irq_set_enabled+0x10>
10001410:	e000e280 	.word	0xe000e280
10001414:	e000e100 	.word	0xe000e100
10001418:	e000e180 	.word	0xe000e180

1000141c <irq_get_vtable_handler>:
1000141c:	4b02      	ldr	r3, [pc, #8]	; (10001428 <irq_get_vtable_handler+0xc>)
1000141e:	3010      	adds	r0, #16
10001420:	689b      	ldr	r3, [r3, #8]
10001422:	0080      	lsls	r0, r0, #2
10001424:	58c0      	ldr	r0, [r0, r3]
10001426:	4770      	bx	lr
10001428:	e000ed00 	.word	0xe000ed00

1000142c <irq_set_exclusive_handler>:
1000142c:	b570      	push	{r4, r5, r6, lr}
1000142e:	000d      	movs	r5, r1
10001430:	f3ef 8610 	mrs	r6, PRIMASK
10001434:	b672      	cpsid	i
10001436:	4a0f      	ldr	r2, [pc, #60]	; (10001474 <irq_set_exclusive_handler+0x48>)
10001438:	6813      	ldr	r3, [r2, #0]
1000143a:	2b00      	cmp	r3, #0
1000143c:	d0fc      	beq.n	10001438 <irq_set_exclusive_handler+0xc>
1000143e:	f3bf 8f5f 	dmb	sy
10001442:	4b0d      	ldr	r3, [pc, #52]	; (10001478 <irq_set_exclusive_handler+0x4c>)
10001444:	3010      	adds	r0, #16
10001446:	689b      	ldr	r3, [r3, #8]
10001448:	0084      	lsls	r4, r0, #2
1000144a:	591b      	ldr	r3, [r3, r4]
1000144c:	4a0b      	ldr	r2, [pc, #44]	; (1000147c <irq_set_exclusive_handler+0x50>)
1000144e:	4293      	cmp	r3, r2
10001450:	d003      	beq.n	1000145a <irq_set_exclusive_handler+0x2e>
10001452:	429d      	cmp	r5, r3
10001454:	d001      	beq.n	1000145a <irq_set_exclusive_handler+0x2e>
10001456:	f7ff fe65 	bl	10001124 <hard_assertion_failure>
1000145a:	4b07      	ldr	r3, [pc, #28]	; (10001478 <irq_set_exclusive_handler+0x4c>)
1000145c:	689b      	ldr	r3, [r3, #8]
1000145e:	511d      	str	r5, [r3, r4]
10001460:	f3bf 8f5f 	dmb	sy
10001464:	f3bf 8f5f 	dmb	sy
10001468:	2200      	movs	r2, #0
1000146a:	4b02      	ldr	r3, [pc, #8]	; (10001474 <irq_set_exclusive_handler+0x48>)
1000146c:	601a      	str	r2, [r3, #0]
1000146e:	f386 8810 	msr	PRIMASK, r6
10001472:	bd70      	pop	{r4, r5, r6, pc}
10001474:	d0000124 	.word	0xd0000124
10001478:	e000ed00 	.word	0xe000ed00
1000147c:	100001cd 	.word	0x100001cd

10001480 <irq_remove_handler>:
10001480:	b5f0      	push	{r4, r5, r6, r7, lr}
10001482:	46de      	mov	lr, fp
10001484:	4657      	mov	r7, sl
10001486:	464e      	mov	r6, r9
10001488:	4645      	mov	r5, r8
1000148a:	b5e0      	push	{r5, r6, r7, lr}
1000148c:	000c      	movs	r4, r1
1000148e:	b083      	sub	sp, #12
10001490:	f3ef 8a10 	mrs	sl, PRIMASK
10001494:	b672      	cpsid	i
10001496:	4a5b      	ldr	r2, [pc, #364]	; (10001604 <irq_remove_handler+0x184>)
10001498:	6813      	ldr	r3, [r2, #0]
1000149a:	2b00      	cmp	r3, #0
1000149c:	d0fc      	beq.n	10001498 <irq_remove_handler+0x18>
1000149e:	f3bf 8f5f 	dmb	sy
100014a2:	2210      	movs	r2, #16
100014a4:	4691      	mov	r9, r2
100014a6:	4481      	add	r9, r0
100014a8:	464a      	mov	r2, r9
100014aa:	4b57      	ldr	r3, [pc, #348]	; (10001608 <irq_remove_handler+0x188>)
100014ac:	0096      	lsls	r6, r2, #2
100014ae:	689b      	ldr	r3, [r3, #8]
100014b0:	599d      	ldr	r5, [r3, r6]
100014b2:	4b56      	ldr	r3, [pc, #344]	; (1000160c <irq_remove_handler+0x18c>)
100014b4:	4698      	mov	r8, r3
100014b6:	429d      	cmp	r5, r3
100014b8:	d005      	beq.n	100014c6 <irq_remove_handler+0x46>
100014ba:	42a5      	cmp	r5, r4
100014bc:	d016      	beq.n	100014ec <irq_remove_handler+0x6c>
100014be:	4f54      	ldr	r7, [pc, #336]	; (10001610 <irq_remove_handler+0x190>)
100014c0:	1beb      	subs	r3, r5, r7
100014c2:	2b2f      	cmp	r3, #47	; 0x2f
100014c4:	d914      	bls.n	100014f0 <irq_remove_handler+0x70>
100014c6:	4b50      	ldr	r3, [pc, #320]	; (10001608 <irq_remove_handler+0x188>)
100014c8:	689b      	ldr	r3, [r3, #8]
100014ca:	519d      	str	r5, [r3, r6]
100014cc:	f3bf 8f5f 	dmb	sy
100014d0:	f3bf 8f5f 	dmb	sy
100014d4:	2200      	movs	r2, #0
100014d6:	4b4b      	ldr	r3, [pc, #300]	; (10001604 <irq_remove_handler+0x184>)
100014d8:	601a      	str	r2, [r3, #0]
100014da:	f38a 8810 	msr	PRIMASK, sl
100014de:	b003      	add	sp, #12
100014e0:	bc3c      	pop	{r2, r3, r4, r5}
100014e2:	4690      	mov	r8, r2
100014e4:	4699      	mov	r9, r3
100014e6:	46a2      	mov	sl, r4
100014e8:	46ab      	mov	fp, r5
100014ea:	bdf0      	pop	{r4, r5, r6, r7, pc}
100014ec:	001d      	movs	r5, r3
100014ee:	e7ea      	b.n	100014c6 <irq_remove_handler+0x46>
100014f0:	2301      	movs	r3, #1
100014f2:	4083      	lsls	r3, r0
100014f4:	469b      	mov	fp, r3
100014f6:	465a      	mov	r2, fp
100014f8:	4b46      	ldr	r3, [pc, #280]	; (10001614 <irq_remove_handler+0x194>)
100014fa:	681b      	ldr	r3, [r3, #0]
100014fc:	401a      	ands	r2, r3
100014fe:	9200      	str	r2, [sp, #0]
10001500:	465a      	mov	r2, fp
10001502:	4b45      	ldr	r3, [pc, #276]	; (10001618 <irq_remove_handler+0x198>)
10001504:	601a      	str	r2, [r3, #0]
10001506:	f3bf 8f5f 	dmb	sy
1000150a:	f7fe feac 	bl	10000266 <__get_current_exception>
1000150e:	9001      	str	r0, [sp, #4]
10001510:	2800      	cmp	r0, #0
10001512:	d003      	beq.n	1000151c <irq_remove_handler+0x9c>
10001514:	4581      	cmp	r9, r0
10001516:	d001      	beq.n	1000151c <irq_remove_handler+0x9c>
10001518:	f7ff fe04 	bl	10001124 <hard_assertion_failure>
1000151c:	2301      	movs	r3, #1
1000151e:	002a      	movs	r2, r5
10001520:	439a      	bics	r2, r3
10001522:	0013      	movs	r3, r2
10001524:	493d      	ldr	r1, [pc, #244]	; (1000161c <irq_remove_handler+0x19c>)
10001526:	1bdb      	subs	r3, r3, r7
10001528:	415b      	adcs	r3, r3
1000152a:	4359      	muls	r1, r3
1000152c:	0d09      	lsrs	r1, r1, #20
1000152e:	6893      	ldr	r3, [r2, #8]
10001530:	429c      	cmp	r4, r3
10001532:	d108      	bne.n	10001546 <irq_remove_handler+0xc6>
10001534:	e05b      	b.n	100015ee <irq_remove_handler+0x16e>
10001536:	0043      	lsls	r3, r0, #1
10001538:	181b      	adds	r3, r3, r0
1000153a:	009b      	lsls	r3, r3, #2
1000153c:	18fb      	adds	r3, r7, r3
1000153e:	6898      	ldr	r0, [r3, #8]
10001540:	42a0      	cmp	r0, r4
10001542:	d011      	beq.n	10001568 <irq_remove_handler+0xe8>
10001544:	001a      	movs	r2, r3
10001546:	2006      	movs	r0, #6
10001548:	5610      	ldrsb	r0, [r2, r0]
1000154a:	2800      	cmp	r0, #0
1000154c:	daf3      	bge.n	10001536 <irq_remove_handler+0xb6>
1000154e:	9b00      	ldr	r3, [sp, #0]
10001550:	2b00      	cmp	r3, #0
10001552:	d005      	beq.n	10001560 <irq_remove_handler+0xe0>
10001554:	465a      	mov	r2, fp
10001556:	4b32      	ldr	r3, [pc, #200]	; (10001620 <irq_remove_handler+0x1a0>)
10001558:	601a      	str	r2, [r3, #0]
1000155a:	4b2e      	ldr	r3, [pc, #184]	; (10001614 <irq_remove_handler+0x194>)
1000155c:	601a      	str	r2, [r3, #0]
1000155e:	e7b2      	b.n	100014c6 <irq_remove_handler+0x46>
10001560:	465a      	mov	r2, fp
10001562:	4b2d      	ldr	r3, [pc, #180]	; (10001618 <irq_remove_handler+0x198>)
10001564:	601a      	str	r2, [r3, #0]
10001566:	e7ae      	b.n	100014c6 <irq_remove_handler+0x46>
10001568:	2006      	movs	r0, #6
1000156a:	5618      	ldrsb	r0, [r3, r0]
1000156c:	2800      	cmp	r0, #0
1000156e:	db22      	blt.n	100015b6 <irq_remove_handler+0x136>
10001570:	0042      	lsls	r2, r0, #1
10001572:	1811      	adds	r1, r2, r0
10001574:	0089      	lsls	r1, r1, #2
10001576:	187c      	adds	r4, r7, r1
10001578:	4688      	mov	r8, r1
1000157a:	68a1      	ldr	r1, [r4, #8]
1000157c:	6099      	str	r1, [r3, #8]
1000157e:	79e1      	ldrb	r1, [r4, #7]
10001580:	71d9      	strb	r1, [r3, #7]
10001582:	2106      	movs	r1, #6
10001584:	5661      	ldrsb	r1, [r4, r1]
10001586:	7199      	strb	r1, [r3, #6]
10001588:	79a1      	ldrb	r1, [r4, #6]
1000158a:	297f      	cmp	r1, #127	; 0x7f
1000158c:	d81f      	bhi.n	100015ce <irq_remove_handler+0x14e>
1000158e:	88a4      	ldrh	r4, [r4, #4]
10001590:	1af9      	subs	r1, r7, r3
10001592:	0564      	lsls	r4, r4, #21
10001594:	1524      	asrs	r4, r4, #20
10001596:	4444      	add	r4, r8
10001598:	1909      	adds	r1, r1, r4
1000159a:	24e0      	movs	r4, #224	; 0xe0
1000159c:	0509      	lsls	r1, r1, #20
1000159e:	0d49      	lsrs	r1, r1, #21
100015a0:	0224      	lsls	r4, r4, #8
100015a2:	4321      	orrs	r1, r4
100015a4:	8099      	strh	r1, [r3, #4]
100015a6:	1812      	adds	r2, r2, r0
100015a8:	4b1e      	ldr	r3, [pc, #120]	; (10001624 <irq_remove_handler+0x1a4>)
100015aa:	0092      	lsls	r2, r2, #2
100015ac:	18bf      	adds	r7, r7, r2
100015ae:	781a      	ldrb	r2, [r3, #0]
100015b0:	7018      	strb	r0, [r3, #0]
100015b2:	71ba      	strb	r2, [r7, #6]
100015b4:	e7cb      	b.n	1000154e <irq_remove_handler+0xce>
100015b6:	9801      	ldr	r0, [sp, #4]
100015b8:	2800      	cmp	r0, #0
100015ba:	d10b      	bne.n	100015d4 <irq_remove_handler+0x154>
100015bc:	30ff      	adds	r0, #255	; 0xff
100015be:	7190      	strb	r0, [r2, #6]
100015c0:	4819      	ldr	r0, [pc, #100]	; (10001628 <irq_remove_handler+0x1a8>)
100015c2:	8090      	strh	r0, [r2, #4]
100015c4:	4a17      	ldr	r2, [pc, #92]	; (10001624 <irq_remove_handler+0x1a4>)
100015c6:	7810      	ldrb	r0, [r2, #0]
100015c8:	7011      	strb	r1, [r2, #0]
100015ca:	7198      	strb	r0, [r3, #6]
100015cc:	e7bf      	b.n	1000154e <irq_remove_handler+0xce>
100015ce:	21bd      	movs	r1, #189	; 0xbd
100015d0:	0209      	lsls	r1, r1, #8
100015d2:	e7e7      	b.n	100015a4 <irq_remove_handler+0x124>
100015d4:	4a15      	ldr	r2, [pc, #84]	; (1000162c <irq_remove_handler+0x1ac>)
100015d6:	4916      	ldr	r1, [pc, #88]	; (10001630 <irq_remove_handler+0x1b0>)
100015d8:	1ad2      	subs	r2, r2, r3
100015da:	3a08      	subs	r2, #8
100015dc:	0250      	lsls	r0, r2, #9
100015de:	0d40      	lsrs	r0, r0, #21
100015e0:	4301      	orrs	r1, r0
100015e2:	8099      	strh	r1, [r3, #4]
100015e4:	4913      	ldr	r1, [pc, #76]	; (10001634 <irq_remove_handler+0x1b4>)
100015e6:	0852      	lsrs	r2, r2, #1
100015e8:	430a      	orrs	r2, r1
100015ea:	80da      	strh	r2, [r3, #6]
100015ec:	e7af      	b.n	1000154e <irq_remove_handler+0xce>
100015ee:	2006      	movs	r0, #6
100015f0:	5610      	ldrsb	r0, [r2, r0]
100015f2:	0013      	movs	r3, r2
100015f4:	2800      	cmp	r0, #0
100015f6:	dabb      	bge.n	10001570 <irq_remove_handler+0xf0>
100015f8:	9a01      	ldr	r2, [sp, #4]
100015fa:	2a00      	cmp	r2, #0
100015fc:	d1ea      	bne.n	100015d4 <irq_remove_handler+0x154>
100015fe:	4645      	mov	r5, r8
10001600:	e7e0      	b.n	100015c4 <irq_remove_handler+0x144>
10001602:	46c0      	nop			; (mov r8, r8)
10001604:	d0000124 	.word	0xd0000124
10001608:	e000ed00 	.word	0xe000ed00
1000160c:	100001cd 	.word	0x100001cd
10001610:	200001a8 	.word	0x200001a8
10001614:	e000e100 	.word	0xe000e100
10001618:	e000e180 	.word	0xe000e180
1000161c:	0000aaaa 	.word	0x0000aaaa
10001620:	e000e280 	.word	0xe000e280
10001624:	2000c8ad 	.word	0x2000c8ad
10001628:	ffffbd00 	.word	0xffffbd00
1000162c:	200001e2 	.word	0x200001e2
10001630:	fffff000 	.word	0xfffff000
10001634:	fffff800 	.word	0xfffff800

10001638 <irq_add_tail_to_free_list>:
10001638:	b5f8      	push	{r3, r4, r5, r6, r7, lr}
1000163a:	2501      	movs	r5, #1
1000163c:	0004      	movs	r4, r0
1000163e:	4305      	orrs	r5, r0
10001640:	f7fe fe11 	bl	10000266 <__get_current_exception>
10001644:	0003      	movs	r3, r0
10001646:	f3ef 8610 	mrs	r6, PRIMASK
1000164a:	b672      	cpsid	i
1000164c:	4921      	ldr	r1, [pc, #132]	; (100016d4 <irq_add_tail_to_free_list+0x9c>)
1000164e:	680a      	ldr	r2, [r1, #0]
10001650:	2a00      	cmp	r2, #0
10001652:	d0fc      	beq.n	1000164e <irq_add_tail_to_free_list+0x16>
10001654:	f3bf 8f5f 	dmb	sy
10001658:	4a1f      	ldr	r2, [pc, #124]	; (100016d8 <irq_add_tail_to_free_list+0xa0>)
1000165a:	0020      	movs	r0, r4
1000165c:	491f      	ldr	r1, [pc, #124]	; (100016dc <irq_add_tail_to_free_list+0xa4>)
1000165e:	1a80      	subs	r0, r0, r2
10001660:	4140      	adcs	r0, r0
10001662:	4341      	muls	r1, r0
10001664:	0d09      	lsrs	r1, r1, #20
10001666:	481e      	ldr	r0, [pc, #120]	; (100016e0 <irq_add_tail_to_free_list+0xa8>)
10001668:	009b      	lsls	r3, r3, #2
1000166a:	6887      	ldr	r7, [r0, #8]
1000166c:	b249      	sxtb	r1, r1
1000166e:	58ff      	ldr	r7, [r7, r3]
10001670:	42af      	cmp	r7, r5
10001672:	d01c      	beq.n	100016ae <irq_add_tail_to_free_list+0x76>
10001674:	2306      	movs	r3, #6
10001676:	56d3      	ldrsb	r3, [r2, r3]
10001678:	428b      	cmp	r3, r1
1000167a:	d01c      	beq.n	100016b6 <irq_add_tail_to_free_list+0x7e>
1000167c:	2312      	movs	r3, #18
1000167e:	56d3      	ldrsb	r3, [r2, r3]
10001680:	428b      	cmp	r3, r1
10001682:	d022      	beq.n	100016ca <irq_add_tail_to_free_list+0x92>
10001684:	231e      	movs	r3, #30
10001686:	56d3      	ldrsb	r3, [r2, r3]
10001688:	428b      	cmp	r3, r1
1000168a:	d020      	beq.n	100016ce <irq_add_tail_to_free_list+0x96>
1000168c:	232a      	movs	r3, #42	; 0x2a
1000168e:	56d3      	ldrsb	r3, [r2, r3]
10001690:	2003      	movs	r0, #3
10001692:	428b      	cmp	r3, r1
10001694:	d010      	beq.n	100016b8 <irq_add_tail_to_free_list+0x80>
10001696:	4b13      	ldr	r3, [pc, #76]	; (100016e4 <irq_add_tail_to_free_list+0xac>)
10001698:	781a      	ldrb	r2, [r3, #0]
1000169a:	7019      	strb	r1, [r3, #0]
1000169c:	71a2      	strb	r2, [r4, #6]
1000169e:	f3bf 8f5f 	dmb	sy
100016a2:	2200      	movs	r2, #0
100016a4:	4b0b      	ldr	r3, [pc, #44]	; (100016d4 <irq_add_tail_to_free_list+0x9c>)
100016a6:	601a      	str	r2, [r3, #0]
100016a8:	f386 8810 	msr	PRIMASK, r6
100016ac:	bdf8      	pop	{r3, r4, r5, r6, r7, pc}
100016ae:	6882      	ldr	r2, [r0, #8]
100016b0:	480d      	ldr	r0, [pc, #52]	; (100016e8 <irq_add_tail_to_free_list+0xb0>)
100016b2:	50d0      	str	r0, [r2, r3]
100016b4:	e7ef      	b.n	10001696 <irq_add_tail_to_free_list+0x5e>
100016b6:	2000      	movs	r0, #0
100016b8:	0043      	lsls	r3, r0, #1
100016ba:	181b      	adds	r3, r3, r0
100016bc:	009b      	lsls	r3, r3, #2
100016be:	18d2      	adds	r2, r2, r3
100016c0:	23ff      	movs	r3, #255	; 0xff
100016c2:	7193      	strb	r3, [r2, #6]
100016c4:	4b09      	ldr	r3, [pc, #36]	; (100016ec <irq_add_tail_to_free_list+0xb4>)
100016c6:	8093      	strh	r3, [r2, #4]
100016c8:	e7e5      	b.n	10001696 <irq_add_tail_to_free_list+0x5e>
100016ca:	2001      	movs	r0, #1
100016cc:	e7f4      	b.n	100016b8 <irq_add_tail_to_free_list+0x80>
100016ce:	2002      	movs	r0, #2
100016d0:	e7f2      	b.n	100016b8 <irq_add_tail_to_free_list+0x80>
100016d2:	46c0      	nop			; (mov r8, r8)
100016d4:	d0000124 	.word	0xd0000124
100016d8:	200001a8 	.word	0x200001a8
100016dc:	0000aaaa 	.word	0x0000aaaa
100016e0:	e000ed00 	.word	0xe000ed00
100016e4:	2000c8ad 	.word	0x2000c8ad
100016e8:	100001cd 	.word	0x100001cd
100016ec:	ffffbd00 	.word	0xffffbd00

100016f0 <irq_init_priorities>:
100016f0:	4b05      	ldr	r3, [pc, #20]	; (10001708 <irq_init_priorities+0x18>)
100016f2:	4a06      	ldr	r2, [pc, #24]	; (1000170c <irq_init_priorities+0x1c>)
100016f4:	6013      	str	r3, [r2, #0]
100016f6:	4a06      	ldr	r2, [pc, #24]	; (10001710 <irq_init_priorities+0x20>)
100016f8:	6013      	str	r3, [r2, #0]
100016fa:	6053      	str	r3, [r2, #4]
100016fc:	6093      	str	r3, [r2, #8]
100016fe:	60d3      	str	r3, [r2, #12]
10001700:	6113      	str	r3, [r2, #16]
10001702:	6153      	str	r3, [r2, #20]
10001704:	6193      	str	r3, [r2, #24]
10001706:	4770      	bx	lr
10001708:	80808080 	.word	0x80808080
1000170c:	e000e400 	.word	0xe000e400
10001710:	e000e404 	.word	0xe000e404

10001714 <pll_init>:
10001714:	b5f8      	push	{r3, r4, r5, r6, r7, lr}
10001716:	0004      	movs	r4, r0
10001718:	200c      	movs	r0, #12
1000171a:	0017      	movs	r7, r2
1000171c:	001d      	movs	r5, r3
1000171e:	000e      	movs	r6, r1
10001720:	f000 f8bc 	bl	1000189c <__wrap___aeabi_uidiv>
10001724:	0141      	lsls	r1, r0, #5
10001726:	1a09      	subs	r1, r1, r0
10001728:	018b      	lsls	r3, r1, #6
1000172a:	1a59      	subs	r1, r3, r1
1000172c:	00c9      	lsls	r1, r1, #3
1000172e:	1809      	adds	r1, r1, r0
10001730:	0189      	lsls	r1, r1, #6
10001732:	0038      	movs	r0, r7
10001734:	f000 f8b2 	bl	1000189c <__wrap___aeabi_uidiv>
10001738:	9a06      	ldr	r2, [sp, #24]
1000173a:	042b      	lsls	r3, r5, #16
1000173c:	0312      	lsls	r2, r2, #12
1000173e:	4313      	orrs	r3, r2
10001740:	6822      	ldr	r2, [r4, #0]
10001742:	2a00      	cmp	r2, #0
10001744:	db21      	blt.n	1000178a <pll_init+0x76>
10001746:	4a18      	ldr	r2, [pc, #96]	; (100017a8 <pll_init+0x94>)
10001748:	18a2      	adds	r2, r4, r2
1000174a:	4251      	negs	r1, r2
1000174c:	414a      	adcs	r2, r1
1000174e:	2180      	movs	r1, #128	; 0x80
10001750:	0149      	lsls	r1, r1, #5
10001752:	468c      	mov	ip, r1
10001754:	4252      	negs	r2, r2
10001756:	400a      	ands	r2, r1
10001758:	4914      	ldr	r1, [pc, #80]	; (100017ac <pll_init+0x98>)
1000175a:	4462      	add	r2, ip
1000175c:	600a      	str	r2, [r1, #0]
1000175e:	4914      	ldr	r1, [pc, #80]	; (100017b0 <pll_init+0x9c>)
10001760:	600a      	str	r2, [r1, #0]
10001762:	4914      	ldr	r1, [pc, #80]	; (100017b4 <pll_init+0xa0>)
10001764:	0017      	movs	r7, r2
10001766:	688d      	ldr	r5, [r1, #8]
10001768:	43af      	bics	r7, r5
1000176a:	d1fb      	bne.n	10001764 <pll_init+0x50>
1000176c:	21c0      	movs	r1, #192	; 0xc0
1000176e:	1d22      	adds	r2, r4, #4
10001770:	0189      	lsls	r1, r1, #6
10001772:	4311      	orrs	r1, r2
10001774:	2221      	movs	r2, #33	; 0x21
10001776:	6026      	str	r6, [r4, #0]
10001778:	60a0      	str	r0, [r4, #8]
1000177a:	600a      	str	r2, [r1, #0]
1000177c:	6822      	ldr	r2, [r4, #0]
1000177e:	2a00      	cmp	r2, #0
10001780:	dafc      	bge.n	1000177c <pll_init+0x68>
10001782:	60e3      	str	r3, [r4, #12]
10001784:	2308      	movs	r3, #8
10001786:	600b      	str	r3, [r1, #0]
10001788:	bdf8      	pop	{r3, r4, r5, r6, r7, pc}
1000178a:	223f      	movs	r2, #63	; 0x3f
1000178c:	6821      	ldr	r1, [r4, #0]
1000178e:	400a      	ands	r2, r1
10001790:	42b2      	cmp	r2, r6
10001792:	d1d8      	bne.n	10001746 <pll_init+0x32>
10001794:	68a2      	ldr	r2, [r4, #8]
10001796:	0512      	lsls	r2, r2, #20
10001798:	0d12      	lsrs	r2, r2, #20
1000179a:	4282      	cmp	r2, r0
1000179c:	d1d3      	bne.n	10001746 <pll_init+0x32>
1000179e:	68e2      	ldr	r2, [r4, #12]
100017a0:	2b00      	cmp	r3, #0
100017a2:	d1d0      	bne.n	10001746 <pll_init+0x32>
100017a4:	e7f0      	b.n	10001788 <pll_init+0x74>
100017a6:	46c0      	nop			; (mov r8, r8)
100017a8:	bffd4000 	.word	0xbffd4000
100017ac:	4000e000 	.word	0x4000e000
100017b0:	4000f000 	.word	0x4000f000
100017b4:	4000c000 	.word	0x4000c000

100017b8 <watchdog_start_tick>:
100017b8:	2380      	movs	r3, #128	; 0x80
100017ba:	4a02      	ldr	r2, [pc, #8]	; (100017c4 <watchdog_start_tick+0xc>)
100017bc:	009b      	lsls	r3, r3, #2
100017be:	4303      	orrs	r3, r0
100017c0:	62d3      	str	r3, [r2, #44]	; 0x2c
100017c2:	4770      	bx	lr
100017c4:	40058000 	.word	0x40058000

100017c8 <xosc_init>:
100017c8:	23aa      	movs	r3, #170	; 0xaa
100017ca:	4a06      	ldr	r2, [pc, #24]	; (100017e4 <xosc_init+0x1c>)
100017cc:	011b      	lsls	r3, r3, #4
100017ce:	6013      	str	r3, [r2, #0]
100017d0:	232f      	movs	r3, #47	; 0x2f
100017d2:	4905      	ldr	r1, [pc, #20]	; (100017e8 <xosc_init+0x20>)
100017d4:	60d3      	str	r3, [r2, #12]
100017d6:	4b05      	ldr	r3, [pc, #20]	; (100017ec <xosc_init+0x24>)
100017d8:	6019      	str	r1, [r3, #0]
100017da:	6853      	ldr	r3, [r2, #4]
100017dc:	2b00      	cmp	r3, #0
100017de:	dafc      	bge.n	100017da <xosc_init+0x12>
100017e0:	4770      	bx	lr
100017e2:	46c0      	nop			; (mov r8, r8)
100017e4:	40024000 	.word	0x40024000
100017e8:	00fab000 	.word	0x00fab000
100017ec:	40026000 	.word	0x40026000

100017f0 <_out_char>:
100017f0:	b510      	push	{r4, lr}
100017f2:	2800      	cmp	r0, #0
100017f4:	d100      	bne.n	100017f8 <_out_char+0x8>
100017f6:	bd10      	pop	{r4, pc}
100017f8:	f000 fa1a 	bl	10001c30 <__wrap_putchar>
100017fc:	e7fb      	b.n	100017f6 <_out_char+0x6>
100017fe:	46c0      	nop			; (mov r8, r8)

10001800 <weak_raw_vprintf>:
10001800:	b510      	push	{r4, lr}
10001802:	4a09      	ldr	r2, [pc, #36]	; (10001828 <weak_raw_vprintf+0x28>)
10001804:	0003      	movs	r3, r0
10001806:	6814      	ldr	r4, [r2, #0]
10001808:	b084      	sub	sp, #16
1000180a:	2c00      	cmp	r4, #0
1000180c:	d008      	beq.n	10001820 <weak_raw_vprintf+0x20>
1000180e:	2201      	movs	r2, #1
10001810:	9100      	str	r1, [sp, #0]
10001812:	4806      	ldr	r0, [pc, #24]	; (1000182c <weak_raw_vprintf+0x2c>)
10001814:	4252      	negs	r2, r2
10001816:	a903      	add	r1, sp, #12
10001818:	47a0      	blx	r4
1000181a:	2001      	movs	r0, #1
1000181c:	b004      	add	sp, #16
1000181e:	bd10      	pop	{r4, pc}
10001820:	f000 fa58 	bl	10001cd4 <__wrap_puts>
10001824:	2000      	movs	r0, #0
10001826:	e7f9      	b.n	1000181c <weak_raw_vprintf+0x1c>
10001828:	2000c87c 	.word	0x2000c87c
1000182c:	100017f1 	.word	0x100017f1

10001830 <__aeabi_bits_init>:
10001830:	4801      	ldr	r0, [pc, #4]	; (10001838 <__aeabi_bits_init+0x8>)
10001832:	2104      	movs	r1, #4
10001834:	4b01      	ldr	r3, [pc, #4]	; (1000183c <__aeabi_bits_init+0xc>)
10001836:	4718      	bx	r3
10001838:	200001f0 	.word	0x200001f0
1000183c:	10001861 	.word	0x10001861

10001840 <rom_func_lookup>:
10001840:	2314      	movs	r3, #20
10001842:	b510      	push	{r4, lr}
10001844:	0001      	movs	r1, r0
10001846:	8818      	ldrh	r0, [r3, #0]
10001848:	3304      	adds	r3, #4
1000184a:	881b      	ldrh	r3, [r3, #0]
1000184c:	4798      	blx	r3
1000184e:	bd10      	pop	{r4, pc}

10001850 <rom_data_lookup>:
10001850:	2316      	movs	r3, #22
10001852:	b510      	push	{r4, lr}
10001854:	0001      	movs	r1, r0
10001856:	8818      	ldrh	r0, [r3, #0]
10001858:	3302      	adds	r3, #2
1000185a:	881b      	ldrh	r3, [r3, #0]
1000185c:	4798      	blx	r3
1000185e:	bd10      	pop	{r4, pc}

10001860 <rom_funcs_lookup>:
10001860:	b5f0      	push	{r4, r5, r6, r7, lr}
10001862:	46c6      	mov	lr, r8
10001864:	b500      	push	{lr}
10001866:	2900      	cmp	r1, #0
10001868:	d016      	beq.n	10001898 <rom_funcs_lookup+0x38>
1000186a:	2314      	movs	r3, #20
1000186c:	0004      	movs	r4, r0
1000186e:	2501      	movs	r5, #1
10001870:	4698      	mov	r8, r3
10001872:	2718      	movs	r7, #24
10001874:	0089      	lsls	r1, r1, #2
10001876:	1846      	adds	r6, r0, r1
10001878:	4643      	mov	r3, r8
1000187a:	6821      	ldr	r1, [r4, #0]
1000187c:	8818      	ldrh	r0, [r3, #0]
1000187e:	883b      	ldrh	r3, [r7, #0]
10001880:	4798      	blx	r3
10001882:	c401      	stmia	r4!, {r0}
10001884:	1e43      	subs	r3, r0, #1
10001886:	4198      	sbcs	r0, r3
10001888:	4240      	negs	r0, r0
1000188a:	4005      	ands	r5, r0
1000188c:	42a6      	cmp	r6, r4
1000188e:	d1f3      	bne.n	10001878 <rom_funcs_lookup+0x18>
10001890:	0028      	movs	r0, r5
10001892:	bc04      	pop	{r2}
10001894:	4690      	mov	r8, r2
10001896:	bdf0      	pop	{r4, r5, r6, r7, pc}
10001898:	2501      	movs	r5, #1
1000189a:	e7f9      	b.n	10001890 <rom_funcs_lookup+0x30>

1000189c <__wrap___aeabi_uidiv>:
1000189c:	4a11      	ldr	r2, [pc, #68]	; (100018e4 <divmod_u32u32_savestate+0x18>)
1000189e:	6f93      	ldr	r3, [r2, #120]	; 0x78
100018a0:	089b      	lsrs	r3, r3, #2
100018a2:	d213      	bcs.n	100018cc <divmod_u32u32_savestate>

100018a4 <divmod_u32u32_unsafe>:
100018a4:	6610      	str	r0, [r2, #96]	; 0x60
100018a6:	6651      	str	r1, [r2, #100]	; 0x64
100018a8:	2900      	cmp	r1, #0
100018aa:	d005      	beq.n	100018b8 <divmod_u32u32_unsafe+0x14>
100018ac:	e7ff      	b.n	100018ae <divmod_u32u32_unsafe+0xa>
100018ae:	e7ff      	b.n	100018b0 <divmod_u32u32_unsafe+0xc>
100018b0:	e7ff      	b.n	100018b2 <divmod_u32u32_unsafe+0xe>
100018b2:	6f51      	ldr	r1, [r2, #116]	; 0x74
100018b4:	6f10      	ldr	r0, [r2, #112]	; 0x70
100018b6:	4770      	bx	lr
100018b8:	b504      	push	{r2, lr}
100018ba:	2800      	cmp	r0, #0
100018bc:	d001      	beq.n	100018c2 <divmod_u32u32_unsafe+0x1e>
100018be:	2000      	movs	r0, #0
100018c0:	43c0      	mvns	r0, r0
100018c2:	f003 fba5 	bl	10005010 <____aeabi_idiv0_veneer>
100018c6:	2100      	movs	r1, #0
100018c8:	bd04      	pop	{r2, pc}
100018ca:	46c0      	nop			; (mov r8, r8)

100018cc <divmod_u32u32_savestate>:
100018cc:	b5f0      	push	{r4, r5, r6, r7, lr}
100018ce:	6e14      	ldr	r4, [r2, #96]	; 0x60
100018d0:	6e55      	ldr	r5, [r2, #100]	; 0x64
100018d2:	6f57      	ldr	r7, [r2, #116]	; 0x74
100018d4:	6f16      	ldr	r6, [r2, #112]	; 0x70
100018d6:	f7ff ffe5 	bl	100018a4 <divmod_u32u32_unsafe>
100018da:	6614      	str	r4, [r2, #96]	; 0x60
100018dc:	6655      	str	r5, [r2, #100]	; 0x64
100018de:	6757      	str	r7, [r2, #116]	; 0x74
100018e0:	6716      	str	r6, [r2, #112]	; 0x70
100018e2:	bdf0      	pop	{r4, r5, r6, r7, pc}
100018e4:	d0000000 	.word	0xd0000000

100018e8 <__aeabi_double_init>:
100018e8:	2313      	movs	r3, #19
100018ea:	b570      	push	{r4, r5, r6, lr}
100018ec:	781d      	ldrb	r5, [r3, #0]
100018ee:	2d01      	cmp	r5, #1
100018f0:	d015      	beq.n	1000191e <__aeabi_double_init+0x36>
100018f2:	dd10      	ble.n	10001916 <__aeabi_double_init+0x2e>
100018f4:	4827      	ldr	r0, [pc, #156]	; (10001994 <__aeabi_double_init+0xac>)
100018f6:	f7ff ffab 	bl	10001850 <rom_data_lookup>
100018fa:	4c27      	ldr	r4, [pc, #156]	; (10001998 <__aeabi_double_init+0xb0>)
100018fc:	0001      	movs	r1, r0
100018fe:	2280      	movs	r2, #128	; 0x80
10001900:	0020      	movs	r0, r4
10001902:	f000 f8bd 	bl	10001a80 <__wrap___aeabi_memcpy>
10001906:	2d02      	cmp	r5, #2
10001908:	d006      	beq.n	10001918 <__aeabi_double_init+0x30>
1000190a:	4824      	ldr	r0, [pc, #144]	; (1000199c <__aeabi_double_init+0xb4>)
1000190c:	f7ff ff98 	bl	10001840 <rom_func_lookup>
10001910:	4b23      	ldr	r3, [pc, #140]	; (100019a0 <__aeabi_double_init+0xb8>)
10001912:	6018      	str	r0, [r3, #0]
10001914:	bd70      	pop	{r4, r5, r6, pc}
10001916:	4c20      	ldr	r4, [pc, #128]	; (10001998 <__aeabi_double_init+0xb0>)
10001918:	4a22      	ldr	r2, [pc, #136]	; (100019a4 <__aeabi_double_init+0xbc>)
1000191a:	64a2      	str	r2, [r4, #72]	; 0x48
1000191c:	e7f5      	b.n	1000190a <__aeabi_double_init+0x22>
1000191e:	002e      	movs	r6, r5
10001920:	4c1d      	ldr	r4, [pc, #116]	; (10001998 <__aeabi_double_init+0xb0>)
10001922:	4a20      	ldr	r2, [pc, #128]	; (100019a4 <__aeabi_double_init+0xbc>)
10001924:	08a3      	lsrs	r3, r4, #2
10001926:	425b      	negs	r3, r3
10001928:	401e      	ands	r6, r3
1000192a:	421d      	tst	r5, r3
1000192c:	d02f      	beq.n	1000198e <__aeabi_double_init+0xa6>
1000192e:	0033      	movs	r3, r6
10001930:	6022      	str	r2, [r4, #0]
10001932:	2020      	movs	r0, #32
10001934:	00b1      	lsls	r1, r6, #2
10001936:	1861      	adds	r1, r4, r1
10001938:	1b80      	subs	r0, r0, r6
1000193a:	600a      	str	r2, [r1, #0]
1000193c:	604a      	str	r2, [r1, #4]
1000193e:	608a      	str	r2, [r1, #8]
10001940:	60ca      	str	r2, [r1, #12]
10001942:	610a      	str	r2, [r1, #16]
10001944:	614a      	str	r2, [r1, #20]
10001946:	618a      	str	r2, [r1, #24]
10001948:	61ca      	str	r2, [r1, #28]
1000194a:	620a      	str	r2, [r1, #32]
1000194c:	624a      	str	r2, [r1, #36]	; 0x24
1000194e:	628a      	str	r2, [r1, #40]	; 0x28
10001950:	62ca      	str	r2, [r1, #44]	; 0x2c
10001952:	630a      	str	r2, [r1, #48]	; 0x30
10001954:	634a      	str	r2, [r1, #52]	; 0x34
10001956:	638a      	str	r2, [r1, #56]	; 0x38
10001958:	63ca      	str	r2, [r1, #60]	; 0x3c
1000195a:	640a      	str	r2, [r1, #64]	; 0x40
1000195c:	644a      	str	r2, [r1, #68]	; 0x44
1000195e:	648a      	str	r2, [r1, #72]	; 0x48
10001960:	64ca      	str	r2, [r1, #76]	; 0x4c
10001962:	650a      	str	r2, [r1, #80]	; 0x50
10001964:	654a      	str	r2, [r1, #84]	; 0x54
10001966:	658a      	str	r2, [r1, #88]	; 0x58
10001968:	65ca      	str	r2, [r1, #92]	; 0x5c
1000196a:	660a      	str	r2, [r1, #96]	; 0x60
1000196c:	664a      	str	r2, [r1, #100]	; 0x64
1000196e:	668a      	str	r2, [r1, #104]	; 0x68
10001970:	66ca      	str	r2, [r1, #108]	; 0x6c
10001972:	670a      	str	r2, [r1, #112]	; 0x70
10001974:	674a      	str	r2, [r1, #116]	; 0x74
10001976:	0840      	lsrs	r0, r0, #1
10001978:	2810      	cmp	r0, #16
1000197a:	d103      	bne.n	10001984 <__aeabi_double_init+0x9c>
1000197c:	678a      	str	r2, [r1, #120]	; 0x78
1000197e:	67ca      	str	r2, [r1, #124]	; 0x7c
10001980:	64a2      	str	r2, [r4, #72]	; 0x48
10001982:	e7c2      	b.n	1000190a <__aeabi_double_init+0x22>
10001984:	331e      	adds	r3, #30
10001986:	009b      	lsls	r3, r3, #2
10001988:	50e2      	str	r2, [r4, r3]
1000198a:	64a2      	str	r2, [r4, #72]	; 0x48
1000198c:	e7bd      	b.n	1000190a <__aeabi_double_init+0x22>
1000198e:	2300      	movs	r3, #0
10001990:	e7cf      	b.n	10001932 <__aeabi_double_init+0x4a>
10001992:	46c0      	nop			; (mov r8, r8)
10001994:	00004453 	.word	0x00004453
10001998:	2000c8b4 	.word	0x2000c8b4
1000199c:	0000334c 	.word	0x0000334c
100019a0:	2000c890 	.word	0x2000c890
100019a4:	100019a9 	.word	0x100019a9

100019a8 <double_table_shim_on_use_helper>:
100019a8:	b507      	push	{r0, r1, r2, lr}
100019aa:	4660      	mov	r0, ip
100019ac:	8801      	ldrh	r1, [r0, #0]
100019ae:	0a0a      	lsrs	r2, r1, #8
100019b0:	3002      	adds	r0, #2
100019b2:	2adf      	cmp	r2, #223	; 0xdf
100019b4:	d1fa      	bne.n	100019ac <double_table_shim_on_use_helper+0x4>
100019b6:	b2c9      	uxtb	r1, r1
100019b8:	0882      	lsrs	r2, r0, #2
100019ba:	d304      	bcc.n	100019c6 <double_table_shim_on_use_helper+0x1e>
100019bc:	8802      	ldrh	r2, [r0, #0]
100019be:	8840      	ldrh	r0, [r0, #2]
100019c0:	0400      	lsls	r0, r0, #16
100019c2:	4310      	orrs	r0, r2
100019c4:	e000      	b.n	100019c8 <double_table_shim_on_use_helper+0x20>
100019c6:	6800      	ldr	r0, [r0, #0]
100019c8:	4a01      	ldr	r2, [pc, #4]	; (100019d0 <double_table_shim_on_use_helper+0x28>)
100019ca:	5050      	str	r0, [r2, r1]
100019cc:	9003      	str	r0, [sp, #12]
100019ce:	bd07      	pop	{r0, r1, r2, pc}
100019d0:	2000c8b4 	.word	0x2000c8b4

100019d4 <__aeabi_float_init>:
100019d4:	2313      	movs	r3, #19
100019d6:	b510      	push	{r4, lr}
100019d8:	4812      	ldr	r0, [pc, #72]	; (10001a24 <__aeabi_float_init+0x50>)
100019da:	781c      	ldrb	r4, [r3, #0]
100019dc:	f7ff ff38 	bl	10001850 <rom_data_lookup>
100019e0:	0001      	movs	r1, r0
100019e2:	2c01      	cmp	r4, #1
100019e4:	d00a      	beq.n	100019fc <__aeabi_float_init+0x28>
100019e6:	dd03      	ble.n	100019f0 <__aeabi_float_init+0x1c>
100019e8:	2280      	movs	r2, #128	; 0x80
100019ea:	480f      	ldr	r0, [pc, #60]	; (10001a28 <__aeabi_float_init+0x54>)
100019ec:	f000 f848 	bl	10001a80 <__wrap___aeabi_memcpy>
100019f0:	480e      	ldr	r0, [pc, #56]	; (10001a2c <__aeabi_float_init+0x58>)
100019f2:	f7ff ff25 	bl	10001840 <rom_func_lookup>
100019f6:	4b0e      	ldr	r3, [pc, #56]	; (10001a30 <__aeabi_float_init+0x5c>)
100019f8:	6018      	str	r0, [r3, #0]
100019fa:	bd10      	pop	{r4, pc}
100019fc:	4c0a      	ldr	r4, [pc, #40]	; (10001a28 <__aeabi_float_init+0x54>)
100019fe:	2254      	movs	r2, #84	; 0x54
10001a00:	0020      	movs	r0, r4
10001a02:	f000 f83d 	bl	10001a80 <__wrap___aeabi_memcpy>
10001a06:	4b0b      	ldr	r3, [pc, #44]	; (10001a34 <__aeabi_float_init+0x60>)
10001a08:	6563      	str	r3, [r4, #84]	; 0x54
10001a0a:	65a3      	str	r3, [r4, #88]	; 0x58
10001a0c:	65e3      	str	r3, [r4, #92]	; 0x5c
10001a0e:	6623      	str	r3, [r4, #96]	; 0x60
10001a10:	6663      	str	r3, [r4, #100]	; 0x64
10001a12:	66a3      	str	r3, [r4, #104]	; 0x68
10001a14:	66e3      	str	r3, [r4, #108]	; 0x6c
10001a16:	6723      	str	r3, [r4, #112]	; 0x70
10001a18:	6763      	str	r3, [r4, #116]	; 0x74
10001a1a:	67a3      	str	r3, [r4, #120]	; 0x78
10001a1c:	67e3      	str	r3, [r4, #124]	; 0x7c
10001a1e:	6223      	str	r3, [r4, #32]
10001a20:	61e3      	str	r3, [r4, #28]
10001a22:	e7e5      	b.n	100019f0 <__aeabi_float_init+0x1c>
10001a24:	00004653 	.word	0x00004653
10001a28:	2000c9b4 	.word	0x2000c9b4
10001a2c:	0000334c 	.word	0x0000334c
10001a30:	2000c890 	.word	0x2000c890
10001a34:	10001a39 	.word	0x10001a39

10001a38 <float_table_shim_on_use_helper>:
10001a38:	b507      	push	{r0, r1, r2, lr}
10001a3a:	4660      	mov	r0, ip
10001a3c:	8801      	ldrh	r1, [r0, #0]
10001a3e:	0a0a      	lsrs	r2, r1, #8
10001a40:	3002      	adds	r0, #2
10001a42:	2adf      	cmp	r2, #223	; 0xdf
10001a44:	d1fa      	bne.n	10001a3c <float_table_shim_on_use_helper+0x4>
10001a46:	b2c9      	uxtb	r1, r1
10001a48:	0882      	lsrs	r2, r0, #2
10001a4a:	d304      	bcc.n	10001a56 <float_table_shim_on_use_helper+0x1e>
10001a4c:	8802      	ldrh	r2, [r0, #0]
10001a4e:	8840      	ldrh	r0, [r0, #2]
10001a50:	0400      	lsls	r0, r0, #16
10001a52:	4310      	orrs	r0, r2
10001a54:	e000      	b.n	10001a58 <float_table_shim_on_use_helper+0x20>
10001a56:	6800      	ldr	r0, [r0, #0]
10001a58:	4a01      	ldr	r2, [pc, #4]	; (10001a60 <float_table_shim_on_use_helper+0x28>)
10001a5a:	5050      	str	r0, [r2, r1]
10001a5c:	9003      	str	r0, [sp, #12]
10001a5e:	bd07      	pop	{r0, r1, r2, pc}
10001a60:	2000c9b4 	.word	0x2000c9b4

10001a64 <__aeabi_mem_init>:
10001a64:	4801      	ldr	r0, [pc, #4]	; (10001a6c <__aeabi_mem_init+0x8>)
10001a66:	2104      	movs	r1, #4
10001a68:	4b01      	ldr	r3, [pc, #4]	; (10001a70 <__aeabi_mem_init+0xc>)
10001a6a:	4718      	bx	r3
10001a6c:	20000200 	.word	0x20000200
10001a70:	10001861 	.word	0x10001861

10001a74 <__wrap_memset>:
10001a74:	4b01      	ldr	r3, [pc, #4]	; (10001a7c <__wrap_memset+0x8>)
10001a76:	681b      	ldr	r3, [r3, #0]
10001a78:	4718      	bx	r3
10001a7a:	0000      	.short	0x0000
10001a7c:	20000200 	.word	0x20000200

10001a80 <__wrap___aeabi_memcpy>:
10001a80:	4b01      	ldr	r3, [pc, #4]	; (10001a88 <__wrap___aeabi_memcpy+0x8>)
10001a82:	685b      	ldr	r3, [r3, #4]
10001a84:	4718      	bx	r3
10001a86:	0000      	.short	0x0000
10001a88:	20000200 	.word	0x20000200

10001a8c <stdio_out_chars_no_crlf>:
10001a8c:	0003      	movs	r3, r0
10001a8e:	b510      	push	{r4, lr}
10001a90:	0008      	movs	r0, r1
10001a92:	681b      	ldr	r3, [r3, #0]
10001a94:	0011      	movs	r1, r2
10001a96:	4798      	blx	r3
10001a98:	bd10      	pop	{r4, pc}
10001a9a:	46c0      	nop			; (mov r8, r8)

10001a9c <stdio_out_chars_crlf>:
10001a9c:	b5f8      	push	{r3, r4, r5, r6, r7, lr}
10001a9e:	4647      	mov	r7, r8
10001aa0:	46ce      	mov	lr, r9
10001aa2:	b580      	push	{r7, lr}
10001aa4:	7c43      	ldrb	r3, [r0, #17]
10001aa6:	0007      	movs	r7, r0
10001aa8:	000d      	movs	r5, r1
10001aaa:	0016      	movs	r6, r2
10001aac:	2b00      	cmp	r3, #0
10001aae:	d037      	beq.n	10001b20 <stdio_out_chars_crlf+0x84>
10001ab0:	2400      	movs	r4, #0
10001ab2:	2000      	movs	r0, #0
10001ab4:	2a00      	cmp	r2, #0
10001ab6:	dd1e      	ble.n	10001af6 <stdio_out_chars_crlf+0x5a>
10001ab8:	1e4b      	subs	r3, r1, #1
10001aba:	4698      	mov	r8, r3
10001abc:	4b1b      	ldr	r3, [pc, #108]	; (10001b2c <stdio_out_chars_crlf+0x90>)
10001abe:	4699      	mov	r9, r3
10001ac0:	2c00      	cmp	r4, #0
10001ac2:	d02b      	beq.n	10001b1c <stdio_out_chars_crlf+0x80>
10001ac4:	4643      	mov	r3, r8
10001ac6:	5d1b      	ldrb	r3, [r3, r4]
10001ac8:	3b0d      	subs	r3, #13
10001aca:	425a      	negs	r2, r3
10001acc:	4153      	adcs	r3, r2
10001ace:	b2db      	uxtb	r3, r3
10001ad0:	5d2a      	ldrb	r2, [r5, r4]
10001ad2:	2a0a      	cmp	r2, #10
10001ad4:	d013      	beq.n	10001afe <stdio_out_chars_crlf+0x62>
10001ad6:	3401      	adds	r4, #1
10001ad8:	42a6      	cmp	r6, r4
10001ada:	dcf1      	bgt.n	10001ac0 <stdio_out_chars_crlf+0x24>
10001adc:	4286      	cmp	r6, r0
10001ade:	dd03      	ble.n	10001ae8 <stdio_out_chars_crlf+0x4c>
10001ae0:	1a31      	subs	r1, r6, r0
10001ae2:	683b      	ldr	r3, [r7, #0]
10001ae4:	1828      	adds	r0, r5, r0
10001ae6:	4798      	blx	r3
10001ae8:	19ad      	adds	r5, r5, r6
10001aea:	3d01      	subs	r5, #1
10001aec:	782b      	ldrb	r3, [r5, #0]
10001aee:	3b0d      	subs	r3, #13
10001af0:	425a      	negs	r2, r3
10001af2:	4153      	adcs	r3, r2
10001af4:	743b      	strb	r3, [r7, #16]
10001af6:	bc0c      	pop	{r2, r3}
10001af8:	4690      	mov	r8, r2
10001afa:	4699      	mov	r9, r3
10001afc:	bdf8      	pop	{r3, r4, r5, r6, r7, pc}
10001afe:	2b00      	cmp	r3, #0
10001b00:	d1e9      	bne.n	10001ad6 <stdio_out_chars_crlf+0x3a>
10001b02:	42a0      	cmp	r0, r4
10001b04:	da03      	bge.n	10001b0e <stdio_out_chars_crlf+0x72>
10001b06:	1a21      	subs	r1, r4, r0
10001b08:	683b      	ldr	r3, [r7, #0]
10001b0a:	1828      	adds	r0, r5, r0
10001b0c:	4798      	blx	r3
10001b0e:	4648      	mov	r0, r9
10001b10:	2102      	movs	r1, #2
10001b12:	683b      	ldr	r3, [r7, #0]
10001b14:	3401      	adds	r4, #1
10001b16:	4798      	blx	r3
10001b18:	0020      	movs	r0, r4
10001b1a:	e7dd      	b.n	10001ad8 <stdio_out_chars_crlf+0x3c>
10001b1c:	7c3b      	ldrb	r3, [r7, #16]
10001b1e:	e7d7      	b.n	10001ad0 <stdio_out_chars_crlf+0x34>
10001b20:	6803      	ldr	r3, [r0, #0]
10001b22:	0011      	movs	r1, r2
10001b24:	0028      	movs	r0, r5
10001b26:	4798      	blx	r3
10001b28:	e7e5      	b.n	10001af6 <stdio_out_chars_crlf+0x5a>
10001b2a:	46c0      	nop			; (mov r8, r8)
10001b2c:	100050f8 	.word	0x100050f8

10001b30 <stdio_put_string>:
10001b30:	b5f0      	push	{r4, r5, r6, r7, lr}
10001b32:	4657      	mov	r7, sl
10001b34:	464e      	mov	r6, r9
10001b36:	4645      	mov	r5, r8
10001b38:	46de      	mov	lr, fp
10001b3a:	001c      	movs	r4, r3
10001b3c:	23d0      	movs	r3, #208	; 0xd0
10001b3e:	b5e0      	push	{r5, r6, r7, lr}
10001b40:	061b      	lsls	r3, r3, #24
10001b42:	681f      	ldr	r7, [r3, #0]
10001b44:	4b35      	ldr	r3, [pc, #212]	; (10001c1c <stdio_put_string+0xec>)
10001b46:	b083      	sub	sp, #12
10001b48:	0006      	movs	r6, r0
10001b4a:	000d      	movs	r5, r1
10001b4c:	0018      	movs	r0, r3
10001b4e:	a901      	add	r1, sp, #4
10001b50:	4691      	mov	r9, r2
10001b52:	469a      	mov	sl, r3
10001b54:	f003 fa64 	bl	10005020 <__mutex_try_enter_veneer>
10001b58:	4680      	mov	r8, r0
10001b5a:	2800      	cmp	r0, #0
10001b5c:	d108      	bne.n	10001b70 <stdio_put_string+0x40>
10001b5e:	9b01      	ldr	r3, [sp, #4]
10001b60:	b27f      	sxtb	r7, r7
10001b62:	429f      	cmp	r7, r3
10001b64:	d004      	beq.n	10001b70 <stdio_put_string+0x40>
10001b66:	4650      	mov	r0, sl
10001b68:	f003 fa62 	bl	10005030 <__mutex_enter_blocking_veneer>
10001b6c:	2301      	movs	r3, #1
10001b6e:	4698      	mov	r8, r3
10001b70:	1c6b      	adds	r3, r5, #1
10001b72:	d103      	bne.n	10001b7c <stdio_put_string+0x4c>
10001b74:	0030      	movs	r0, r6
10001b76:	f003 fa0b 	bl	10004f90 <strlen>
10001b7a:	0005      	movs	r5, r0
10001b7c:	2c00      	cmp	r4, #0
10001b7e:	d12a      	bne.n	10001bd6 <stdio_put_string+0xa6>
10001b80:	4f27      	ldr	r7, [pc, #156]	; (10001c20 <stdio_put_string+0xf0>)
10001b82:	4b28      	ldr	r3, [pc, #160]	; (10001c24 <stdio_put_string+0xf4>)
10001b84:	681c      	ldr	r4, [r3, #0]
10001b86:	2c00      	cmp	r4, #0
10001b88:	d018      	beq.n	10001bbc <stdio_put_string+0x8c>
10001b8a:	464b      	mov	r3, r9
10001b8c:	2b00      	cmp	r3, #0
10001b8e:	d124      	bne.n	10001bda <stdio_put_string+0xaa>
10001b90:	4b25      	ldr	r3, [pc, #148]	; (10001c28 <stdio_put_string+0xf8>)
10001b92:	4699      	mov	r9, r3
10001b94:	e002      	b.n	10001b9c <stdio_put_string+0x6c>
10001b96:	68e4      	ldr	r4, [r4, #12]
10001b98:	2c00      	cmp	r4, #0
10001b9a:	d00f      	beq.n	10001bbc <stdio_put_string+0x8c>
10001b9c:	6823      	ldr	r3, [r4, #0]
10001b9e:	2b00      	cmp	r3, #0
10001ba0:	d0f9      	beq.n	10001b96 <stdio_put_string+0x66>
10001ba2:	464b      	mov	r3, r9
10001ba4:	681b      	ldr	r3, [r3, #0]
10001ba6:	2b00      	cmp	r3, #0
10001ba8:	d001      	beq.n	10001bae <stdio_put_string+0x7e>
10001baa:	42a3      	cmp	r3, r4
10001bac:	d1f3      	bne.n	10001b96 <stdio_put_string+0x66>
10001bae:	0020      	movs	r0, r4
10001bb0:	002a      	movs	r2, r5
10001bb2:	0031      	movs	r1, r6
10001bb4:	47b8      	blx	r7
10001bb6:	68e4      	ldr	r4, [r4, #12]
10001bb8:	2c00      	cmp	r4, #0
10001bba:	d1ef      	bne.n	10001b9c <stdio_put_string+0x6c>
10001bbc:	4643      	mov	r3, r8
10001bbe:	2b00      	cmp	r3, #0
10001bc0:	d128      	bne.n	10001c14 <stdio_put_string+0xe4>
10001bc2:	1e68      	subs	r0, r5, #1
10001bc4:	4185      	sbcs	r5, r0
10001bc6:	b2e8      	uxtb	r0, r5
10001bc8:	b003      	add	sp, #12
10001bca:	bc3c      	pop	{r2, r3, r4, r5}
10001bcc:	4690      	mov	r8, r2
10001bce:	4699      	mov	r9, r3
10001bd0:	46a2      	mov	sl, r4
10001bd2:	46ab      	mov	fp, r5
10001bd4:	bdf0      	pop	{r4, r5, r6, r7, pc}
10001bd6:	4f15      	ldr	r7, [pc, #84]	; (10001c2c <stdio_put_string+0xfc>)
10001bd8:	e7d3      	b.n	10001b82 <stdio_put_string+0x52>
10001bda:	4b13      	ldr	r3, [pc, #76]	; (10001c28 <stdio_put_string+0xf8>)
10001bdc:	4699      	mov	r9, r3
10001bde:	230a      	movs	r3, #10
10001be0:	469b      	mov	fp, r3
10001be2:	e002      	b.n	10001bea <stdio_put_string+0xba>
10001be4:	68e4      	ldr	r4, [r4, #12]
10001be6:	2c00      	cmp	r4, #0
10001be8:	d0e8      	beq.n	10001bbc <stdio_put_string+0x8c>
10001bea:	6823      	ldr	r3, [r4, #0]
10001bec:	2b00      	cmp	r3, #0
10001bee:	d0f9      	beq.n	10001be4 <stdio_put_string+0xb4>
10001bf0:	464b      	mov	r3, r9
10001bf2:	681b      	ldr	r3, [r3, #0]
10001bf4:	2b00      	cmp	r3, #0
10001bf6:	d001      	beq.n	10001bfc <stdio_put_string+0xcc>
10001bf8:	42a3      	cmp	r3, r4
10001bfa:	d1f3      	bne.n	10001be4 <stdio_put_string+0xb4>
10001bfc:	002a      	movs	r2, r5
10001bfe:	0031      	movs	r1, r6
10001c00:	0020      	movs	r0, r4
10001c02:	47b8      	blx	r7
10001c04:	465a      	mov	r2, fp
10001c06:	466b      	mov	r3, sp
10001c08:	0020      	movs	r0, r4
10001c0a:	711a      	strb	r2, [r3, #4]
10001c0c:	a901      	add	r1, sp, #4
10001c0e:	2201      	movs	r2, #1
10001c10:	47b8      	blx	r7
10001c12:	e7e7      	b.n	10001be4 <stdio_put_string+0xb4>
10001c14:	4650      	mov	r0, sl
10001c16:	f003 f9f3 	bl	10005000 <__mutex_exit_veneer>
10001c1a:	e7d2      	b.n	10001bc2 <stdio_put_string+0x92>
10001c1c:	2000022c 	.word	0x2000022c
10001c20:	10001a9d 	.word	0x10001a9d
10001c24:	2000c874 	.word	0x2000c874
10001c28:	2000c878 	.word	0x2000c878
10001c2c:	10001a8d 	.word	0x10001a8d

10001c30 <__wrap_putchar>:
10001c30:	b5f0      	push	{r4, r5, r6, r7, lr}
10001c32:	4647      	mov	r7, r8
10001c34:	46ce      	mov	lr, r9
10001c36:	b580      	push	{r7, lr}
10001c38:	b083      	sub	sp, #12
10001c3a:	466b      	mov	r3, sp
10001c3c:	1cdf      	adds	r7, r3, #3
10001c3e:	23d0      	movs	r3, #208	; 0xd0
10001c40:	7038      	strb	r0, [r7, #0]
10001c42:	061b      	lsls	r3, r3, #24
10001c44:	681c      	ldr	r4, [r3, #0]
10001c46:	4b20      	ldr	r3, [pc, #128]	; (10001cc8 <__wrap_putchar+0x98>)
10001c48:	0006      	movs	r6, r0
10001c4a:	a901      	add	r1, sp, #4
10001c4c:	0018      	movs	r0, r3
10001c4e:	4698      	mov	r8, r3
10001c50:	f003 f9e6 	bl	10005020 <__mutex_try_enter_veneer>
10001c54:	1e05      	subs	r5, r0, #0
10001c56:	d022      	beq.n	10001c9e <__wrap_putchar+0x6e>
10001c58:	4b1c      	ldr	r3, [pc, #112]	; (10001ccc <__wrap_putchar+0x9c>)
10001c5a:	681c      	ldr	r4, [r3, #0]
10001c5c:	2c00      	cmp	r4, #0
10001c5e:	d02a      	beq.n	10001cb6 <__wrap_putchar+0x86>
10001c60:	4b1b      	ldr	r3, [pc, #108]	; (10001cd0 <__wrap_putchar+0xa0>)
10001c62:	4699      	mov	r9, r3
10001c64:	e002      	b.n	10001c6c <__wrap_putchar+0x3c>
10001c66:	68e4      	ldr	r4, [r4, #12]
10001c68:	2c00      	cmp	r4, #0
10001c6a:	d010      	beq.n	10001c8e <__wrap_putchar+0x5e>
10001c6c:	6823      	ldr	r3, [r4, #0]
10001c6e:	2b00      	cmp	r3, #0
10001c70:	d0f9      	beq.n	10001c66 <__wrap_putchar+0x36>
10001c72:	464b      	mov	r3, r9
10001c74:	681b      	ldr	r3, [r3, #0]
10001c76:	2b00      	cmp	r3, #0
10001c78:	d001      	beq.n	10001c7e <__wrap_putchar+0x4e>
10001c7a:	42a3      	cmp	r3, r4
10001c7c:	d1f3      	bne.n	10001c66 <__wrap_putchar+0x36>
10001c7e:	0020      	movs	r0, r4
10001c80:	2201      	movs	r2, #1
10001c82:	0039      	movs	r1, r7
10001c84:	f7ff ff0a 	bl	10001a9c <stdio_out_chars_crlf>
10001c88:	68e4      	ldr	r4, [r4, #12]
10001c8a:	2c00      	cmp	r4, #0
10001c8c:	d1ee      	bne.n	10001c6c <__wrap_putchar+0x3c>
10001c8e:	2d00      	cmp	r5, #0
10001c90:	d111      	bne.n	10001cb6 <__wrap_putchar+0x86>
10001c92:	0030      	movs	r0, r6
10001c94:	b003      	add	sp, #12
10001c96:	bc0c      	pop	{r2, r3}
10001c98:	4690      	mov	r8, r2
10001c9a:	4699      	mov	r9, r3
10001c9c:	bdf0      	pop	{r4, r5, r6, r7, pc}
10001c9e:	9b01      	ldr	r3, [sp, #4]
10001ca0:	b264      	sxtb	r4, r4
10001ca2:	429c      	cmp	r4, r3
10001ca4:	d00b      	beq.n	10001cbe <__wrap_putchar+0x8e>
10001ca6:	4640      	mov	r0, r8
10001ca8:	f003 f9c2 	bl	10005030 <__mutex_enter_blocking_veneer>
10001cac:	4b07      	ldr	r3, [pc, #28]	; (10001ccc <__wrap_putchar+0x9c>)
10001cae:	2501      	movs	r5, #1
10001cb0:	681c      	ldr	r4, [r3, #0]
10001cb2:	2c00      	cmp	r4, #0
10001cb4:	d1d4      	bne.n	10001c60 <__wrap_putchar+0x30>
10001cb6:	4640      	mov	r0, r8
10001cb8:	f003 f9a2 	bl	10005000 <__mutex_exit_veneer>
10001cbc:	e7e9      	b.n	10001c92 <__wrap_putchar+0x62>
10001cbe:	4b03      	ldr	r3, [pc, #12]	; (10001ccc <__wrap_putchar+0x9c>)
10001cc0:	681c      	ldr	r4, [r3, #0]
10001cc2:	2c00      	cmp	r4, #0
10001cc4:	d1cc      	bne.n	10001c60 <__wrap_putchar+0x30>
10001cc6:	e7e4      	b.n	10001c92 <__wrap_putchar+0x62>
10001cc8:	2000022c 	.word	0x2000022c
10001ccc:	2000c874 	.word	0x2000c874
10001cd0:	2000c878 	.word	0x2000c878

10001cd4 <__wrap_puts>:
10001cd4:	b570      	push	{r4, r5, r6, lr}
10001cd6:	0004      	movs	r4, r0
10001cd8:	f003 f95a 	bl	10004f90 <strlen>
10001cdc:	2300      	movs	r3, #0
10001cde:	0001      	movs	r1, r0
10001ce0:	0005      	movs	r5, r0
10001ce2:	2201      	movs	r2, #1
10001ce4:	0020      	movs	r0, r4
10001ce6:	f7ff ff23 	bl	10001b30 <stdio_put_string>
10001cea:	4b08      	ldr	r3, [pc, #32]	; (10001d0c <__wrap_puts+0x38>)
10001cec:	681c      	ldr	r4, [r3, #0]
10001cee:	2c00      	cmp	r4, #0
10001cf0:	d006      	beq.n	10001d00 <__wrap_puts+0x2c>
10001cf2:	6863      	ldr	r3, [r4, #4]
10001cf4:	2b00      	cmp	r3, #0
10001cf6:	d005      	beq.n	10001d04 <__wrap_puts+0x30>
10001cf8:	4798      	blx	r3
10001cfa:	68e4      	ldr	r4, [r4, #12]
10001cfc:	2c00      	cmp	r4, #0
10001cfe:	d1f8      	bne.n	10001cf2 <__wrap_puts+0x1e>
10001d00:	0028      	movs	r0, r5
10001d02:	bd70      	pop	{r4, r5, r6, pc}
10001d04:	68e4      	ldr	r4, [r4, #12]
10001d06:	2c00      	cmp	r4, #0
10001d08:	d1f3      	bne.n	10001cf2 <__wrap_puts+0x1e>
10001d0a:	e7f9      	b.n	10001d00 <__wrap_puts+0x2c>
10001d0c:	2000c874 	.word	0x2000c874

10001d10 <stdio_set_driver_enabled>:
10001d10:	4a0d      	ldr	r2, [pc, #52]	; (10001d48 <stdio_set_driver_enabled+0x38>)
10001d12:	6813      	ldr	r3, [r2, #0]
10001d14:	2b00      	cmp	r3, #0
10001d16:	d013      	beq.n	10001d40 <stdio_set_driver_enabled+0x30>
10001d18:	4283      	cmp	r3, r0
10001d1a:	d102      	bne.n	10001d22 <stdio_set_driver_enabled+0x12>
10001d1c:	e009      	b.n	10001d32 <stdio_set_driver_enabled+0x22>
10001d1e:	4298      	cmp	r0, r3
10001d20:	d008      	beq.n	10001d34 <stdio_set_driver_enabled+0x24>
10001d22:	001a      	movs	r2, r3
10001d24:	68db      	ldr	r3, [r3, #12]
10001d26:	2b00      	cmp	r3, #0
10001d28:	d1f9      	bne.n	10001d1e <stdio_set_driver_enabled+0xe>
10001d2a:	2900      	cmp	r1, #0
10001d2c:	d000      	beq.n	10001d30 <stdio_set_driver_enabled+0x20>
10001d2e:	60d0      	str	r0, [r2, #12]
10001d30:	4770      	bx	lr
10001d32:	001a      	movs	r2, r3
10001d34:	2900      	cmp	r1, #0
10001d36:	d1fb      	bne.n	10001d30 <stdio_set_driver_enabled+0x20>
10001d38:	68db      	ldr	r3, [r3, #12]
10001d3a:	60d3      	str	r3, [r2, #12]
10001d3c:	60c1      	str	r1, [r0, #12]
10001d3e:	e7f7      	b.n	10001d30 <stdio_set_driver_enabled+0x20>
10001d40:	2900      	cmp	r1, #0
10001d42:	d0f5      	beq.n	10001d30 <stdio_set_driver_enabled+0x20>
10001d44:	6010      	str	r0, [r2, #0]
10001d46:	e7f3      	b.n	10001d30 <stdio_set_driver_enabled+0x20>
10001d48:	2000c874 	.word	0x2000c874

10001d4c <stdio_init_all>:
10001d4c:	b510      	push	{r4, lr}
10001d4e:	f000 f843 	bl	10001dd8 <stdio_uart_init>
10001d52:	bd10      	pop	{r4, pc}

10001d54 <stdio_uart_out_chars>:
10001d54:	b5f0      	push	{r4, r5, r6, r7, lr}
10001d56:	1e0d      	subs	r5, r1, #0
10001d58:	dd15      	ble.n	10001d86 <stdio_uart_out_chars+0x32>
10001d5a:	4b0e      	ldr	r3, [pc, #56]	; (10001d94 <stdio_uart_out_chars+0x40>)
10001d5c:	270d      	movs	r7, #13
10001d5e:	681a      	ldr	r2, [r3, #0]
10001d60:	4b0d      	ldr	r3, [pc, #52]	; (10001d98 <stdio_uart_out_chars+0x44>)
10001d62:	1945      	adds	r5, r0, r5
10001d64:	18d3      	adds	r3, r2, r3
10001d66:	4259      	negs	r1, r3
10001d68:	414b      	adcs	r3, r1
10001d6a:	490c      	ldr	r1, [pc, #48]	; (10001d9c <stdio_uart_out_chars+0x48>)
10001d6c:	005b      	lsls	r3, r3, #1
10001d6e:	5e5e      	ldrsh	r6, [r3, r1]
10001d70:	2120      	movs	r1, #32
10001d72:	7804      	ldrb	r4, [r0, #0]
10001d74:	42a6      	cmp	r6, r4
10001d76:	d007      	beq.n	10001d88 <stdio_uart_out_chars+0x34>
10001d78:	6993      	ldr	r3, [r2, #24]
10001d7a:	4219      	tst	r1, r3
10001d7c:	d1fc      	bne.n	10001d78 <stdio_uart_out_chars+0x24>
10001d7e:	3001      	adds	r0, #1
10001d80:	6014      	str	r4, [r2, #0]
10001d82:	42a8      	cmp	r0, r5
10001d84:	d1f5      	bne.n	10001d72 <stdio_uart_out_chars+0x1e>
10001d86:	bdf0      	pop	{r4, r5, r6, r7, pc}
10001d88:	6993      	ldr	r3, [r2, #24]
10001d8a:	4219      	tst	r1, r3
10001d8c:	d1fc      	bne.n	10001d88 <stdio_uart_out_chars+0x34>
10001d8e:	6017      	str	r7, [r2, #0]
10001d90:	e7f2      	b.n	10001d78 <stdio_uart_out_chars+0x24>
10001d92:	46c0      	nop			; (mov r8, r8)
10001d94:	2000c8a8 	.word	0x2000c8a8
10001d98:	bffc8000 	.word	0xbffc8000
10001d9c:	2000c8b0 	.word	0x2000c8b0

10001da0 <stdio_uart_in_chars>:
10001da0:	b530      	push	{r4, r5, lr}
10001da2:	0005      	movs	r5, r0
10001da4:	2900      	cmp	r1, #0
10001da6:	dd12      	ble.n	10001dce <stdio_uart_in_chars+0x2e>
10001da8:	2000      	movs	r0, #0
10001daa:	2410      	movs	r4, #16
10001dac:	4b09      	ldr	r3, [pc, #36]	; (10001dd4 <stdio_uart_in_chars+0x34>)
10001dae:	3d01      	subs	r5, #1
10001db0:	681a      	ldr	r2, [r3, #0]
10001db2:	6993      	ldr	r3, [r2, #24]
10001db4:	421c      	tst	r4, r3
10001db6:	d108      	bne.n	10001dca <stdio_uart_in_chars+0x2a>
10001db8:	3001      	adds	r0, #1
10001dba:	6993      	ldr	r3, [r2, #24]
10001dbc:	421c      	tst	r4, r3
10001dbe:	d1fc      	bne.n	10001dba <stdio_uart_in_chars+0x1a>
10001dc0:	6813      	ldr	r3, [r2, #0]
10001dc2:	542b      	strb	r3, [r5, r0]
10001dc4:	4281      	cmp	r1, r0
10001dc6:	d1f4      	bne.n	10001db2 <stdio_uart_in_chars+0x12>
10001dc8:	bd30      	pop	{r4, r5, pc}
10001dca:	2800      	cmp	r0, #0
10001dcc:	d1fc      	bne.n	10001dc8 <stdio_uart_in_chars+0x28>
10001dce:	2003      	movs	r0, #3
10001dd0:	4240      	negs	r0, r0
10001dd2:	e7f9      	b.n	10001dc8 <stdio_uart_in_chars+0x28>
10001dd4:	2000c8a8 	.word	0x2000c8a8

10001dd8 <stdio_uart_init>:
10001dd8:	21e1      	movs	r1, #225	; 0xe1
10001dda:	b510      	push	{r4, lr}
10001ddc:	4b0b      	ldr	r3, [pc, #44]	; (10001e0c <stdio_uart_init+0x34>)
10001dde:	480c      	ldr	r0, [pc, #48]	; (10001e10 <stdio_uart_init+0x38>)
10001de0:	781b      	ldrb	r3, [r3, #0]
10001de2:	4b0c      	ldr	r3, [pc, #48]	; (10001e14 <stdio_uart_init+0x3c>)
10001de4:	0249      	lsls	r1, r1, #9
10001de6:	781b      	ldrb	r3, [r3, #0]
10001de8:	4b0b      	ldr	r3, [pc, #44]	; (10001e18 <stdio_uart_init+0x40>)
10001dea:	6018      	str	r0, [r3, #0]
10001dec:	f7fe fb82 	bl	100004f4 <uart_init>
10001df0:	2102      	movs	r1, #2
10001df2:	2000      	movs	r0, #0
10001df4:	f7fe fb02 	bl	100003fc <gpio_set_function>
10001df8:	2102      	movs	r1, #2
10001dfa:	2001      	movs	r0, #1
10001dfc:	f7fe fafe 	bl	100003fc <gpio_set_function>
10001e00:	2101      	movs	r1, #1
10001e02:	4806      	ldr	r0, [pc, #24]	; (10001e1c <stdio_uart_init+0x44>)
10001e04:	f7ff ff84 	bl	10001d10 <stdio_set_driver_enabled>
10001e08:	bd10      	pop	{r4, pc}
10001e0a:	46c0      	nop			; (mov r8, r8)
10001e0c:	10005190 	.word	0x10005190
10001e10:	40034000 	.word	0x40034000
10001e14:	10005194 	.word	0x10005194
10001e18:	2000c8a8 	.word	0x2000c8a8
10001e1c:	20000210 	.word	0x20000210

10001e20 <prvIdleTask>:
10001e20:	b570      	push	{r4, r5, r6, lr}
10001e22:	4c10      	ldr	r4, [pc, #64]	; (10001e64 <prvIdleTask+0x44>)
10001e24:	e014      	b.n	10001e50 <prvIdleTask+0x30>
10001e26:	f001 fd9d 	bl	10003964 <vPortEnterCritical>
10001e2a:	6923      	ldr	r3, [r4, #16]
10001e2c:	68dd      	ldr	r5, [r3, #12]
10001e2e:	1d28      	adds	r0, r5, #4
10001e30:	f001 ff9a 	bl	10003d68 <uxListRemove>
10001e34:	69a3      	ldr	r3, [r4, #24]
10001e36:	3b01      	subs	r3, #1
10001e38:	61a3      	str	r3, [r4, #24]
10001e3a:	6823      	ldr	r3, [r4, #0]
10001e3c:	3b01      	subs	r3, #1
10001e3e:	6023      	str	r3, [r4, #0]
10001e40:	f001 fd9c 	bl	1000397c <vPortExitCritical>
10001e44:	6b28      	ldr	r0, [r5, #48]	; 0x30
10001e46:	f001 fead 	bl	10003ba4 <vPortFree>
10001e4a:	0028      	movs	r0, r5
10001e4c:	f001 feaa 	bl	10003ba4 <vPortFree>
10001e50:	6823      	ldr	r3, [r4, #0]
10001e52:	2b00      	cmp	r3, #0
10001e54:	d1e7      	bne.n	10001e26 <prvIdleTask+0x6>
10001e56:	69e3      	ldr	r3, [r4, #28]
10001e58:	2b01      	cmp	r3, #1
10001e5a:	d9f9      	bls.n	10001e50 <prvIdleTask+0x30>
10001e5c:	f001 fd76 	bl	1000394c <vPortYield>
10001e60:	e7f6      	b.n	10001e50 <prvIdleTask+0x30>
10001e62:	46c0      	nop			; (mov r8, r8)
10001e64:	20000364 	.word	0x20000364

10001e68 <prvAddCurrentTaskToDelayedList>:
10001e68:	b5f8      	push	{r3, r4, r5, r6, r7, lr}
10001e6a:	0004      	movs	r4, r0
10001e6c:	4d1b      	ldr	r5, [pc, #108]	; (10001edc <prvAddCurrentTaskToDelayedList+0x74>)
10001e6e:	000e      	movs	r6, r1
10001e70:	6eef      	ldr	r7, [r5, #108]	; 0x6c
10001e72:	6f28      	ldr	r0, [r5, #112]	; 0x70
10001e74:	3004      	adds	r0, #4
10001e76:	f001 ff77 	bl	10003d68 <uxListRemove>
10001e7a:	1c63      	adds	r3, r4, #1
10001e7c:	d016      	beq.n	10001eac <prvAddCurrentTaskToDelayedList+0x44>
10001e7e:	6f2b      	ldr	r3, [r5, #112]	; 0x70
10001e80:	193c      	adds	r4, r7, r4
10001e82:	605c      	str	r4, [r3, #4]
10001e84:	42a7      	cmp	r7, r4
10001e86:	d80a      	bhi.n	10001e9e <prvAddCurrentTaskToDelayedList+0x36>
10001e88:	4e15      	ldr	r6, [pc, #84]	; (10001ee0 <prvAddCurrentTaskToDelayedList+0x78>)
10001e8a:	68f0      	ldr	r0, [r6, #12]
10001e8c:	6f29      	ldr	r1, [r5, #112]	; 0x70
10001e8e:	3104      	adds	r1, #4
10001e90:	f001 ff52 	bl	10003d38 <vListInsert>
10001e94:	6933      	ldr	r3, [r6, #16]
10001e96:	42a3      	cmp	r3, r4
10001e98:	d900      	bls.n	10001e9c <prvAddCurrentTaskToDelayedList+0x34>
10001e9a:	6134      	str	r4, [r6, #16]
10001e9c:	bdf8      	pop	{r3, r4, r5, r6, r7, pc}
10001e9e:	4b10      	ldr	r3, [pc, #64]	; (10001ee0 <prvAddCurrentTaskToDelayedList+0x78>)
10001ea0:	6898      	ldr	r0, [r3, #8]
10001ea2:	6f29      	ldr	r1, [r5, #112]	; 0x70
10001ea4:	3104      	adds	r1, #4
10001ea6:	f001 ff47 	bl	10003d38 <vListInsert>
10001eaa:	e7f7      	b.n	10001e9c <prvAddCurrentTaskToDelayedList+0x34>
10001eac:	2e00      	cmp	r6, #0
10001eae:	d0e6      	beq.n	10001e7e <prvAddCurrentTaskToDelayedList+0x16>
10001eb0:	6f2a      	ldr	r2, [r5, #112]	; 0x70
10001eb2:	6fab      	ldr	r3, [r5, #120]	; 0x78
10001eb4:	6899      	ldr	r1, [r3, #8]
10001eb6:	6093      	str	r3, [r2, #8]
10001eb8:	6f2a      	ldr	r2, [r5, #112]	; 0x70
10001eba:	60d1      	str	r1, [r2, #12]
10001ebc:	6f2a      	ldr	r2, [r5, #112]	; 0x70
10001ebe:	6899      	ldr	r1, [r3, #8]
10001ec0:	3204      	adds	r2, #4
10001ec2:	604a      	str	r2, [r1, #4]
10001ec4:	6f2a      	ldr	r2, [r5, #112]	; 0x70
10001ec6:	3204      	adds	r2, #4
10001ec8:	609a      	str	r2, [r3, #8]
10001eca:	002a      	movs	r2, r5
10001ecc:	6f2b      	ldr	r3, [r5, #112]	; 0x70
10001ece:	3274      	adds	r2, #116	; 0x74
10001ed0:	615a      	str	r2, [r3, #20]
10001ed2:	6f6b      	ldr	r3, [r5, #116]	; 0x74
10001ed4:	3301      	adds	r3, #1
10001ed6:	676b      	str	r3, [r5, #116]	; 0x74
10001ed8:	e7e0      	b.n	10001e9c <prvAddCurrentTaskToDelayedList+0x34>
10001eda:	46c0      	nop			; (mov r8, r8)
10001edc:	20000364 	.word	0x20000364
10001ee0:	200003e4 	.word	0x200003e4

10001ee4 <xTaskIncrementTick.part.0>:
10001ee4:	4b49      	ldr	r3, [pc, #292]	; (1000200c <xTaskIncrementTick.part.0+0x128>)
10001ee6:	b5f0      	push	{r4, r5, r6, r7, lr}
10001ee8:	46de      	mov	lr, fp
10001eea:	469b      	mov	fp, r3
10001eec:	464e      	mov	r6, r9
10001eee:	4657      	mov	r7, sl
10001ef0:	4645      	mov	r5, r8
10001ef2:	465a      	mov	r2, fp
10001ef4:	b5e0      	push	{r5, r6, r7, lr}
10001ef6:	6ede      	ldr	r6, [r3, #108]	; 0x6c
10001ef8:	b083      	sub	sp, #12
10001efa:	1c73      	adds	r3, r6, #1
10001efc:	4944      	ldr	r1, [pc, #272]	; (10002010 <xTaskIncrementTick.part.0+0x12c>)
10001efe:	9301      	str	r3, [sp, #4]
10001f00:	66d3      	str	r3, [r2, #108]	; 0x6c
10001f02:	2b00      	cmp	r3, #0
10001f04:	d10c      	bne.n	10001f20 <xTaskIncrementTick.part.0+0x3c>
10001f06:	68cb      	ldr	r3, [r1, #12]
10001f08:	688a      	ldr	r2, [r1, #8]
10001f0a:	60ca      	str	r2, [r1, #12]
10001f0c:	608b      	str	r3, [r1, #8]
10001f0e:	694b      	ldr	r3, [r1, #20]
10001f10:	3301      	adds	r3, #1
10001f12:	614b      	str	r3, [r1, #20]
10001f14:	68cb      	ldr	r3, [r1, #12]
10001f16:	681b      	ldr	r3, [r3, #0]
10001f18:	2b00      	cmp	r3, #0
10001f1a:	d16d      	bne.n	10001ff8 <xTaskIncrementTick.part.0+0x114>
10001f1c:	3b01      	subs	r3, #1
10001f1e:	610b      	str	r3, [r1, #16]
10001f20:	2200      	movs	r2, #0
10001f22:	690b      	ldr	r3, [r1, #16]
10001f24:	4690      	mov	r8, r2
10001f26:	9a01      	ldr	r2, [sp, #4]
10001f28:	429a      	cmp	r2, r3
10001f2a:	d358      	bcc.n	10001fde <xTaskIncrementTick.part.0+0xfa>
10001f2c:	68cb      	ldr	r3, [r1, #12]
10001f2e:	681b      	ldr	r3, [r3, #0]
10001f30:	2b00      	cmp	r3, #0
10001f32:	d051      	beq.n	10001fd8 <xTaskIncrementTick.part.0+0xf4>
10001f34:	2300      	movs	r3, #0
10001f36:	469a      	mov	sl, r3
10001f38:	331c      	adds	r3, #28
10001f3a:	469c      	mov	ip, r3
10001f3c:	44dc      	add	ip, fp
10001f3e:	e038      	b.n	10001fb2 <xTaskIncrementTick.part.0+0xce>
10001f40:	4650      	mov	r0, sl
10001f42:	6814      	ldr	r4, [r2, #0]
10001f44:	6158      	str	r0, [r3, #20]
10001f46:	3c01      	subs	r4, #1
10001f48:	6014      	str	r4, [r2, #0]
10001f4a:	6a9a      	ldr	r2, [r3, #40]	; 0x28
10001f4c:	2a00      	cmp	r2, #0
10001f4e:	d00e      	beq.n	10001f6e <xTaskIncrementTick.part.0+0x8a>
10001f50:	69dc      	ldr	r4, [r3, #28]
10001f52:	6a18      	ldr	r0, [r3, #32]
10001f54:	60a0      	str	r0, [r4, #8]
10001f56:	6a1f      	ldr	r7, [r3, #32]
10001f58:	6850      	ldr	r0, [r2, #4]
10001f5a:	607c      	str	r4, [r7, #4]
10001f5c:	001c      	movs	r4, r3
10001f5e:	3418      	adds	r4, #24
10001f60:	42a0      	cmp	r0, r4
10001f62:	d04e      	beq.n	10002002 <xTaskIncrementTick.part.0+0x11e>
10001f64:	4650      	mov	r0, sl
10001f66:	6814      	ldr	r4, [r2, #0]
10001f68:	6298      	str	r0, [r3, #40]	; 0x28
10001f6a:	3c01      	subs	r4, #1
10001f6c:	6014      	str	r4, [r2, #0]
10001f6e:	6adc      	ldr	r4, [r3, #44]	; 0x2c
10001f70:	698a      	ldr	r2, [r1, #24]
10001f72:	4294      	cmp	r4, r2
10001f74:	d900      	bls.n	10001f78 <xTaskIncrementTick.part.0+0x94>
10001f76:	618c      	str	r4, [r1, #24]
10001f78:	4658      	mov	r0, fp
10001f7a:	464d      	mov	r5, r9
10001f7c:	00a2      	lsls	r2, r4, #2
10001f7e:	1912      	adds	r2, r2, r4
10001f80:	0092      	lsls	r2, r2, #2
10001f82:	1887      	adds	r7, r0, r2
10001f84:	6a38      	ldr	r0, [r7, #32]
10001f86:	4462      	add	r2, ip
10001f88:	6886      	ldr	r6, [r0, #8]
10001f8a:	6098      	str	r0, [r3, #8]
10001f8c:	60de      	str	r6, [r3, #12]
10001f8e:	6886      	ldr	r6, [r0, #8]
10001f90:	6075      	str	r5, [r6, #4]
10001f92:	6085      	str	r5, [r0, #8]
10001f94:	615a      	str	r2, [r3, #20]
10001f96:	69fb      	ldr	r3, [r7, #28]
10001f98:	3301      	adds	r3, #1
10001f9a:	61fb      	str	r3, [r7, #28]
10001f9c:	465b      	mov	r3, fp
10001f9e:	6f1b      	ldr	r3, [r3, #112]	; 0x70
10001fa0:	6adb      	ldr	r3, [r3, #44]	; 0x2c
10001fa2:	429c      	cmp	r4, r3
10001fa4:	d301      	bcc.n	10001faa <xTaskIncrementTick.part.0+0xc6>
10001fa6:	2301      	movs	r3, #1
10001fa8:	4698      	mov	r8, r3
10001faa:	68cb      	ldr	r3, [r1, #12]
10001fac:	681b      	ldr	r3, [r3, #0]
10001fae:	2b00      	cmp	r3, #0
10001fb0:	d012      	beq.n	10001fd8 <xTaskIncrementTick.part.0+0xf4>
10001fb2:	68cb      	ldr	r3, [r1, #12]
10001fb4:	9801      	ldr	r0, [sp, #4]
10001fb6:	68db      	ldr	r3, [r3, #12]
10001fb8:	68db      	ldr	r3, [r3, #12]
10001fba:	685a      	ldr	r2, [r3, #4]
10001fbc:	4290      	cmp	r0, r2
10001fbe:	d322      	bcc.n	10002006 <xTaskIncrementTick.part.0+0x122>
10001fc0:	1d18      	adds	r0, r3, #4
10001fc2:	4681      	mov	r9, r0
10001fc4:	695a      	ldr	r2, [r3, #20]
10001fc6:	689f      	ldr	r7, [r3, #8]
10001fc8:	68dc      	ldr	r4, [r3, #12]
10001fca:	6850      	ldr	r0, [r2, #4]
10001fcc:	60bc      	str	r4, [r7, #8]
10001fce:	6067      	str	r7, [r4, #4]
10001fd0:	4548      	cmp	r0, r9
10001fd2:	d1b5      	bne.n	10001f40 <xTaskIncrementTick.part.0+0x5c>
10001fd4:	6054      	str	r4, [r2, #4]
10001fd6:	e7b3      	b.n	10001f40 <xTaskIncrementTick.part.0+0x5c>
10001fd8:	2301      	movs	r3, #1
10001fda:	425b      	negs	r3, r3
10001fdc:	610b      	str	r3, [r1, #16]
10001fde:	69cb      	ldr	r3, [r1, #28]
10001fe0:	2b00      	cmp	r3, #0
10001fe2:	d001      	beq.n	10001fe8 <xTaskIncrementTick.part.0+0x104>
10001fe4:	2301      	movs	r3, #1
10001fe6:	4698      	mov	r8, r3
10001fe8:	4640      	mov	r0, r8
10001fea:	b003      	add	sp, #12
10001fec:	bc3c      	pop	{r2, r3, r4, r5}
10001fee:	4690      	mov	r8, r2
10001ff0:	4699      	mov	r9, r3
10001ff2:	46a2      	mov	sl, r4
10001ff4:	46ab      	mov	fp, r5
10001ff6:	bdf0      	pop	{r4, r5, r6, r7, pc}
10001ff8:	68cb      	ldr	r3, [r1, #12]
10001ffa:	68db      	ldr	r3, [r3, #12]
10001ffc:	681b      	ldr	r3, [r3, #0]
10001ffe:	610b      	str	r3, [r1, #16]
10002000:	e78e      	b.n	10001f20 <xTaskIncrementTick.part.0+0x3c>
10002002:	6057      	str	r7, [r2, #4]
10002004:	e7ae      	b.n	10001f64 <xTaskIncrementTick.part.0+0x80>
10002006:	610a      	str	r2, [r1, #16]
10002008:	e7e9      	b.n	10001fde <xTaskIncrementTick.part.0+0xfa>
1000200a:	46c0      	nop			; (mov r8, r8)
1000200c:	20000364 	.word	0x20000364
10002010:	200003e4 	.word	0x200003e4

10002014 <xTaskCreate>:
10002014:	b5f8      	push	{r3, r4, r5, r6, r7, lr}
10002016:	46ce      	mov	lr, r9
10002018:	4647      	mov	r7, r8
1000201a:	4698      	mov	r8, r3
1000201c:	0093      	lsls	r3, r2, #2
1000201e:	b580      	push	{r7, lr}
10002020:	0007      	movs	r7, r0
10002022:	0018      	movs	r0, r3
10002024:	000d      	movs	r5, r1
10002026:	4699      	mov	r9, r3
10002028:	f001 fd24 	bl	10003a74 <pvPortMalloc>
1000202c:	1e06      	subs	r6, r0, #0
1000202e:	d100      	bne.n	10002032 <xTaskCreate+0x1e>
10002030:	e0c3      	b.n	100021ba <xTaskCreate+0x1a6>
10002032:	2068      	movs	r0, #104	; 0x68
10002034:	f001 fd1e 	bl	10003a74 <pvPortMalloc>
10002038:	1e04      	subs	r4, r0, #0
1000203a:	d100      	bne.n	1000203e <xTaskCreate+0x2a>
1000203c:	e0c4      	b.n	100021c8 <xTaskCreate+0x1b4>
1000203e:	2268      	movs	r2, #104	; 0x68
10002040:	2100      	movs	r1, #0
10002042:	f7ff fd17 	bl	10001a74 <__wrap_memset>
10002046:	4648      	mov	r0, r9
10002048:	2307      	movs	r3, #7
1000204a:	3804      	subs	r0, #4
1000204c:	6326      	str	r6, [r4, #48]	; 0x30
1000204e:	1836      	adds	r6, r6, r0
10002050:	439e      	bics	r6, r3
10002052:	2d00      	cmp	r5, #0
10002054:	d05f      	beq.n	10002116 <xTaskCreate+0x102>
10002056:	2334      	movs	r3, #52	; 0x34
10002058:	782a      	ldrb	r2, [r5, #0]
1000205a:	54e2      	strb	r2, [r4, r3]
1000205c:	782b      	ldrb	r3, [r5, #0]
1000205e:	2b00      	cmp	r3, #0
10002060:	d056      	beq.n	10002110 <xTaskCreate+0xfc>
10002062:	2335      	movs	r3, #53	; 0x35
10002064:	786a      	ldrb	r2, [r5, #1]
10002066:	54e2      	strb	r2, [r4, r3]
10002068:	786b      	ldrb	r3, [r5, #1]
1000206a:	2b00      	cmp	r3, #0
1000206c:	d050      	beq.n	10002110 <xTaskCreate+0xfc>
1000206e:	2336      	movs	r3, #54	; 0x36
10002070:	78aa      	ldrb	r2, [r5, #2]
10002072:	54e2      	strb	r2, [r4, r3]
10002074:	78ab      	ldrb	r3, [r5, #2]
10002076:	2b00      	cmp	r3, #0
10002078:	d04a      	beq.n	10002110 <xTaskCreate+0xfc>
1000207a:	2337      	movs	r3, #55	; 0x37
1000207c:	78ea      	ldrb	r2, [r5, #3]
1000207e:	54e2      	strb	r2, [r4, r3]
10002080:	78eb      	ldrb	r3, [r5, #3]
10002082:	2b00      	cmp	r3, #0
10002084:	d044      	beq.n	10002110 <xTaskCreate+0xfc>
10002086:	2338      	movs	r3, #56	; 0x38
10002088:	792a      	ldrb	r2, [r5, #4]
1000208a:	54e2      	strb	r2, [r4, r3]
1000208c:	792b      	ldrb	r3, [r5, #4]
1000208e:	2b00      	cmp	r3, #0
10002090:	d03e      	beq.n	10002110 <xTaskCreate+0xfc>
10002092:	2339      	movs	r3, #57	; 0x39
10002094:	796a      	ldrb	r2, [r5, #5]
10002096:	54e2      	strb	r2, [r4, r3]
10002098:	796b      	ldrb	r3, [r5, #5]
1000209a:	2b00      	cmp	r3, #0
1000209c:	d038      	beq.n	10002110 <xTaskCreate+0xfc>
1000209e:	233a      	movs	r3, #58	; 0x3a
100020a0:	79aa      	ldrb	r2, [r5, #6]
100020a2:	54e2      	strb	r2, [r4, r3]
100020a4:	79ab      	ldrb	r3, [r5, #6]
100020a6:	2b00      	cmp	r3, #0
100020a8:	d032      	beq.n	10002110 <xTaskCreate+0xfc>
100020aa:	233b      	movs	r3, #59	; 0x3b
100020ac:	79ea      	ldrb	r2, [r5, #7]
100020ae:	54e2      	strb	r2, [r4, r3]
100020b0:	79eb      	ldrb	r3, [r5, #7]
100020b2:	2b00      	cmp	r3, #0
100020b4:	d02c      	beq.n	10002110 <xTaskCreate+0xfc>
100020b6:	233c      	movs	r3, #60	; 0x3c
100020b8:	7a2a      	ldrb	r2, [r5, #8]
100020ba:	54e2      	strb	r2, [r4, r3]
100020bc:	7a2b      	ldrb	r3, [r5, #8]
100020be:	2b00      	cmp	r3, #0
100020c0:	d026      	beq.n	10002110 <xTaskCreate+0xfc>
100020c2:	233d      	movs	r3, #61	; 0x3d
100020c4:	7a6a      	ldrb	r2, [r5, #9]
100020c6:	54e2      	strb	r2, [r4, r3]
100020c8:	7a6b      	ldrb	r3, [r5, #9]
100020ca:	2b00      	cmp	r3, #0
100020cc:	d020      	beq.n	10002110 <xTaskCreate+0xfc>
100020ce:	233e      	movs	r3, #62	; 0x3e
100020d0:	7aaa      	ldrb	r2, [r5, #10]
100020d2:	54e2      	strb	r2, [r4, r3]
100020d4:	7aab      	ldrb	r3, [r5, #10]
100020d6:	2b00      	cmp	r3, #0
100020d8:	d01a      	beq.n	10002110 <xTaskCreate+0xfc>
100020da:	233f      	movs	r3, #63	; 0x3f
100020dc:	7aea      	ldrb	r2, [r5, #11]
100020de:	54e2      	strb	r2, [r4, r3]
100020e0:	7aeb      	ldrb	r3, [r5, #11]
100020e2:	2b00      	cmp	r3, #0
100020e4:	d014      	beq.n	10002110 <xTaskCreate+0xfc>
100020e6:	2340      	movs	r3, #64	; 0x40
100020e8:	7b2a      	ldrb	r2, [r5, #12]
100020ea:	54e2      	strb	r2, [r4, r3]
100020ec:	7b2b      	ldrb	r3, [r5, #12]
100020ee:	2b00      	cmp	r3, #0
100020f0:	d00e      	beq.n	10002110 <xTaskCreate+0xfc>
100020f2:	2341      	movs	r3, #65	; 0x41
100020f4:	7b6a      	ldrb	r2, [r5, #13]
100020f6:	54e2      	strb	r2, [r4, r3]
100020f8:	7b6b      	ldrb	r3, [r5, #13]
100020fa:	2b00      	cmp	r3, #0
100020fc:	d008      	beq.n	10002110 <xTaskCreate+0xfc>
100020fe:	2342      	movs	r3, #66	; 0x42
10002100:	7baa      	ldrb	r2, [r5, #14]
10002102:	54e2      	strb	r2, [r4, r3]
10002104:	7bab      	ldrb	r3, [r5, #14]
10002106:	2b00      	cmp	r3, #0
10002108:	d002      	beq.n	10002110 <xTaskCreate+0xfc>
1000210a:	2343      	movs	r3, #67	; 0x43
1000210c:	7bea      	ldrb	r2, [r5, #15]
1000210e:	54e2      	strb	r2, [r4, r3]
10002110:	2343      	movs	r3, #67	; 0x43
10002112:	2200      	movs	r2, #0
10002114:	54e2      	strb	r2, [r4, r3]
10002116:	9d08      	ldr	r5, [sp, #32]
10002118:	2d03      	cmp	r5, #3
1000211a:	d85b      	bhi.n	100021d4 <xTaskCreate+0x1c0>
1000211c:	1d23      	adds	r3, r4, #4
1000211e:	0018      	movs	r0, r3
10002120:	62e5      	str	r5, [r4, #44]	; 0x2c
10002122:	4699      	mov	r9, r3
10002124:	f001 fdf8 	bl	10003d18 <vListInitialiseItem>
10002128:	0020      	movs	r0, r4
1000212a:	3018      	adds	r0, #24
1000212c:	f001 fdf4 	bl	10003d18 <vListInitialiseItem>
10002130:	2304      	movs	r3, #4
10002132:	1b5d      	subs	r5, r3, r5
10002134:	4642      	mov	r2, r8
10002136:	0039      	movs	r1, r7
10002138:	0030      	movs	r0, r6
1000213a:	6124      	str	r4, [r4, #16]
1000213c:	61a5      	str	r5, [r4, #24]
1000213e:	6264      	str	r4, [r4, #36]	; 0x24
10002140:	f001 fbf0 	bl	10003924 <pxPortInitialiseStack>
10002144:	9b09      	ldr	r3, [sp, #36]	; 0x24
10002146:	6020      	str	r0, [r4, #0]
10002148:	2b00      	cmp	r3, #0
1000214a:	d000      	beq.n	1000214e <xTaskCreate+0x13a>
1000214c:	601c      	str	r4, [r3, #0]
1000214e:	f001 fc09 	bl	10003964 <vPortEnterCritical>
10002152:	4d3e      	ldr	r5, [pc, #248]	; (1000224c <xTaskCreate+0x238>)
10002154:	69ab      	ldr	r3, [r5, #24]
10002156:	3301      	adds	r3, #1
10002158:	61ab      	str	r3, [r5, #24]
1000215a:	6f2b      	ldr	r3, [r5, #112]	; 0x70
1000215c:	2b00      	cmp	r3, #0
1000215e:	d042      	beq.n	100021e6 <xTaskCreate+0x1d2>
10002160:	4e3b      	ldr	r6, [pc, #236]	; (10002250 <xTaskCreate+0x23c>)
10002162:	6df3      	ldr	r3, [r6, #92]	; 0x5c
10002164:	2b00      	cmp	r3, #0
10002166:	d037      	beq.n	100021d8 <xTaskCreate+0x1c4>
10002168:	6ae2      	ldr	r2, [r4, #44]	; 0x2c
1000216a:	6e33      	ldr	r3, [r6, #96]	; 0x60
1000216c:	3301      	adds	r3, #1
1000216e:	6633      	str	r3, [r6, #96]	; 0x60
10002170:	69b3      	ldr	r3, [r6, #24]
10002172:	4293      	cmp	r3, r2
10002174:	d200      	bcs.n	10002178 <xTaskCreate+0x164>
10002176:	61b2      	str	r2, [r6, #24]
10002178:	464f      	mov	r7, r9
1000217a:	0093      	lsls	r3, r2, #2
1000217c:	189b      	adds	r3, r3, r2
1000217e:	009b      	lsls	r3, r3, #2
10002180:	18e9      	adds	r1, r5, r3
10002182:	6a0a      	ldr	r2, [r1, #32]
10002184:	6890      	ldr	r0, [r2, #8]
10002186:	60a2      	str	r2, [r4, #8]
10002188:	60e0      	str	r0, [r4, #12]
1000218a:	6890      	ldr	r0, [r2, #8]
1000218c:	6047      	str	r7, [r0, #4]
1000218e:	6097      	str	r7, [r2, #8]
10002190:	002a      	movs	r2, r5
10002192:	321c      	adds	r2, #28
10002194:	18d3      	adds	r3, r2, r3
10002196:	6163      	str	r3, [r4, #20]
10002198:	69cb      	ldr	r3, [r1, #28]
1000219a:	3301      	adds	r3, #1
1000219c:	61cb      	str	r3, [r1, #28]
1000219e:	f001 fbed 	bl	1000397c <vPortExitCritical>
100021a2:	6df3      	ldr	r3, [r6, #92]	; 0x5c
100021a4:	2601      	movs	r6, #1
100021a6:	2b00      	cmp	r3, #0
100021a8:	d009      	beq.n	100021be <xTaskCreate+0x1aa>
100021aa:	6f2b      	ldr	r3, [r5, #112]	; 0x70
100021ac:	6ada      	ldr	r2, [r3, #44]	; 0x2c
100021ae:	6ae3      	ldr	r3, [r4, #44]	; 0x2c
100021b0:	429a      	cmp	r2, r3
100021b2:	d204      	bcs.n	100021be <xTaskCreate+0x1aa>
100021b4:	f001 fbca 	bl	1000394c <vPortYield>
100021b8:	e001      	b.n	100021be <xTaskCreate+0x1aa>
100021ba:	2601      	movs	r6, #1
100021bc:	4276      	negs	r6, r6
100021be:	0030      	movs	r0, r6
100021c0:	bc0c      	pop	{r2, r3}
100021c2:	4690      	mov	r8, r2
100021c4:	4699      	mov	r9, r3
100021c6:	bdf8      	pop	{r3, r4, r5, r6, r7, pc}
100021c8:	0030      	movs	r0, r6
100021ca:	2601      	movs	r6, #1
100021cc:	f001 fcea 	bl	10003ba4 <vPortFree>
100021d0:	4276      	negs	r6, r6
100021d2:	e7f4      	b.n	100021be <xTaskCreate+0x1aa>
100021d4:	2503      	movs	r5, #3
100021d6:	e7a1      	b.n	1000211c <xTaskCreate+0x108>
100021d8:	6f2b      	ldr	r3, [r5, #112]	; 0x70
100021da:	6ae2      	ldr	r2, [r4, #44]	; 0x2c
100021dc:	6adb      	ldr	r3, [r3, #44]	; 0x2c
100021de:	4293      	cmp	r3, r2
100021e0:	d8c3      	bhi.n	1000216a <xTaskCreate+0x156>
100021e2:	672c      	str	r4, [r5, #112]	; 0x70
100021e4:	e7c1      	b.n	1000216a <xTaskCreate+0x156>
100021e6:	672c      	str	r4, [r5, #112]	; 0x70
100021e8:	69ab      	ldr	r3, [r5, #24]
100021ea:	2b01      	cmp	r3, #1
100021ec:	d002      	beq.n	100021f4 <xTaskCreate+0x1e0>
100021ee:	6ae2      	ldr	r2, [r4, #44]	; 0x2c
100021f0:	4e17      	ldr	r6, [pc, #92]	; (10002250 <xTaskCreate+0x23c>)
100021f2:	e7ba      	b.n	1000216a <xTaskCreate+0x156>
100021f4:	0028      	movs	r0, r5
100021f6:	301c      	adds	r0, #28
100021f8:	f001 fd82 	bl	10003d00 <vListInitialise>
100021fc:	0028      	movs	r0, r5
100021fe:	3030      	adds	r0, #48	; 0x30
10002200:	f001 fd7e 	bl	10003d00 <vListInitialise>
10002204:	0028      	movs	r0, r5
10002206:	3044      	adds	r0, #68	; 0x44
10002208:	f001 fd7a 	bl	10003d00 <vListInitialise>
1000220c:	0028      	movs	r0, r5
1000220e:	3058      	adds	r0, #88	; 0x58
10002210:	f001 fd76 	bl	10003d00 <vListInitialise>
10002214:	2320      	movs	r3, #32
10002216:	4e0e      	ldr	r6, [pc, #56]	; (10002250 <xTaskCreate+0x23c>)
10002218:	4698      	mov	r8, r3
1000221a:	0037      	movs	r7, r6
1000221c:	44b0      	add	r8, r6
1000221e:	4640      	mov	r0, r8
10002220:	3734      	adds	r7, #52	; 0x34
10002222:	f001 fd6d 	bl	10003d00 <vListInitialise>
10002226:	0038      	movs	r0, r7
10002228:	f001 fd6a 	bl	10003d00 <vListInitialise>
1000222c:	0030      	movs	r0, r6
1000222e:	3048      	adds	r0, #72	; 0x48
10002230:	f001 fd66 	bl	10003d00 <vListInitialise>
10002234:	1d28      	adds	r0, r5, #4
10002236:	f001 fd63 	bl	10003d00 <vListInitialise>
1000223a:	0028      	movs	r0, r5
1000223c:	3074      	adds	r0, #116	; 0x74
1000223e:	f001 fd5f 	bl	10003d00 <vListInitialise>
10002242:	4643      	mov	r3, r8
10002244:	6ae2      	ldr	r2, [r4, #44]	; 0x2c
10002246:	60f3      	str	r3, [r6, #12]
10002248:	60b7      	str	r7, [r6, #8]
1000224a:	e78e      	b.n	1000216a <xTaskCreate+0x156>
1000224c:	20000364 	.word	0x20000364
10002250:	200003e4 	.word	0x200003e4

10002254 <vTaskDelete>:
10002254:	b5f8      	push	{r3, r4, r5, r6, r7, lr}
10002256:	0004      	movs	r4, r0
10002258:	f001 fb84 	bl	10003964 <vPortEnterCritical>
1000225c:	4e20      	ldr	r6, [pc, #128]	; (100022e0 <vTaskDelete+0x8c>)
1000225e:	2c00      	cmp	r4, #0
10002260:	d031      	beq.n	100022c6 <vTaskDelete+0x72>
10002262:	1d27      	adds	r7, r4, #4
10002264:	0038      	movs	r0, r7
10002266:	f001 fd7f 	bl	10003d68 <uxListRemove>
1000226a:	6aa3      	ldr	r3, [r4, #40]	; 0x28
1000226c:	2b00      	cmp	r3, #0
1000226e:	d003      	beq.n	10002278 <vTaskDelete+0x24>
10002270:	0020      	movs	r0, r4
10002272:	3018      	adds	r0, #24
10002274:	f001 fd78 	bl	10003d68 <uxListRemove>
10002278:	4d1a      	ldr	r5, [pc, #104]	; (100022e4 <vTaskDelete+0x90>)
1000227a:	6e2b      	ldr	r3, [r5, #96]	; 0x60
1000227c:	3301      	adds	r3, #1
1000227e:	662b      	str	r3, [r5, #96]	; 0x60
10002280:	6f33      	ldr	r3, [r6, #112]	; 0x70
10002282:	42a3      	cmp	r3, r4
10002284:	d021      	beq.n	100022ca <vTaskDelete+0x76>
10002286:	69b3      	ldr	r3, [r6, #24]
10002288:	3b01      	subs	r3, #1
1000228a:	61b3      	str	r3, [r6, #24]
1000228c:	68eb      	ldr	r3, [r5, #12]
1000228e:	681b      	ldr	r3, [r3, #0]
10002290:	2b00      	cmp	r3, #0
10002292:	d015      	beq.n	100022c0 <vTaskDelete+0x6c>
10002294:	68eb      	ldr	r3, [r5, #12]
10002296:	68db      	ldr	r3, [r3, #12]
10002298:	681b      	ldr	r3, [r3, #0]
1000229a:	612b      	str	r3, [r5, #16]
1000229c:	f001 fb6e 	bl	1000397c <vPortExitCritical>
100022a0:	6f33      	ldr	r3, [r6, #112]	; 0x70
100022a2:	42a3      	cmp	r3, r4
100022a4:	d005      	beq.n	100022b2 <vTaskDelete+0x5e>
100022a6:	6b20      	ldr	r0, [r4, #48]	; 0x30
100022a8:	f001 fc7c 	bl	10003ba4 <vPortFree>
100022ac:	0020      	movs	r0, r4
100022ae:	f001 fc79 	bl	10003ba4 <vPortFree>
100022b2:	6deb      	ldr	r3, [r5, #92]	; 0x5c
100022b4:	2b00      	cmp	r3, #0
100022b6:	d002      	beq.n	100022be <vTaskDelete+0x6a>
100022b8:	6f33      	ldr	r3, [r6, #112]	; 0x70
100022ba:	42a3      	cmp	r3, r4
100022bc:	d00d      	beq.n	100022da <vTaskDelete+0x86>
100022be:	bdf8      	pop	{r3, r4, r5, r6, r7, pc}
100022c0:	3b01      	subs	r3, #1
100022c2:	612b      	str	r3, [r5, #16]
100022c4:	e7ea      	b.n	1000229c <vTaskDelete+0x48>
100022c6:	6f34      	ldr	r4, [r6, #112]	; 0x70
100022c8:	e7cb      	b.n	10002262 <vTaskDelete+0xe>
100022ca:	0039      	movs	r1, r7
100022cc:	1d30      	adds	r0, r6, #4
100022ce:	f001 fd27 	bl	10003d20 <vListInsertEnd>
100022d2:	6833      	ldr	r3, [r6, #0]
100022d4:	3301      	adds	r3, #1
100022d6:	6033      	str	r3, [r6, #0]
100022d8:	e7e0      	b.n	1000229c <vTaskDelete+0x48>
100022da:	f001 fb37 	bl	1000394c <vPortYield>
100022de:	e7ee      	b.n	100022be <vTaskDelete+0x6a>
100022e0:	20000364 	.word	0x20000364
100022e4:	200003e4 	.word	0x200003e4

100022e8 <uxTaskPriorityGet>:
100022e8:	b510      	push	{r4, lr}
100022ea:	0004      	movs	r4, r0
100022ec:	f001 fb3a 	bl	10003964 <vPortEnterCritical>
100022f0:	2c00      	cmp	r4, #0
100022f2:	d004      	beq.n	100022fe <uxTaskPriorityGet+0x16>
100022f4:	6ae4      	ldr	r4, [r4, #44]	; 0x2c
100022f6:	f001 fb41 	bl	1000397c <vPortExitCritical>
100022fa:	0020      	movs	r0, r4
100022fc:	bd10      	pop	{r4, pc}
100022fe:	4b01      	ldr	r3, [pc, #4]	; (10002304 <uxTaskPriorityGet+0x1c>)
10002300:	6f1c      	ldr	r4, [r3, #112]	; 0x70
10002302:	e7f7      	b.n	100022f4 <uxTaskPriorityGet+0xc>
10002304:	20000364 	.word	0x20000364

10002308 <uxTaskPriorityGetFromISR>:
10002308:	b510      	push	{r4, lr}
1000230a:	0004      	movs	r4, r0
1000230c:	f001 fb40 	bl	10003990 <ulSetInterruptMaskFromISR>
10002310:	2c00      	cmp	r4, #0
10002312:	d004      	beq.n	1000231e <uxTaskPriorityGetFromISR+0x16>
10002314:	6ae4      	ldr	r4, [r4, #44]	; 0x2c
10002316:	f001 fb3f 	bl	10003998 <vClearInterruptMaskFromISR>
1000231a:	0020      	movs	r0, r4
1000231c:	bd10      	pop	{r4, pc}
1000231e:	4b01      	ldr	r3, [pc, #4]	; (10002324 <uxTaskPriorityGetFromISR+0x1c>)
10002320:	6f1c      	ldr	r4, [r3, #112]	; 0x70
10002322:	e7f7      	b.n	10002314 <uxTaskPriorityGetFromISR+0xc>
10002324:	20000364 	.word	0x20000364

10002328 <vTaskPrioritySet>:
10002328:	b5f8      	push	{r3, r4, r5, r6, r7, lr}
1000232a:	0004      	movs	r4, r0
1000232c:	000d      	movs	r5, r1
1000232e:	2903      	cmp	r1, #3
10002330:	d900      	bls.n	10002334 <vTaskPrioritySet+0xc>
10002332:	2503      	movs	r5, #3
10002334:	f001 fb16 	bl	10003964 <vPortEnterCritical>
10002338:	2c00      	cmp	r4, #0
1000233a:	d028      	beq.n	1000238e <vTaskPrioritySet+0x66>
1000233c:	6ae3      	ldr	r3, [r4, #44]	; 0x2c
1000233e:	429d      	cmp	r5, r3
10002340:	d019      	beq.n	10002376 <vTaskPrioritySet+0x4e>
10002342:	4e23      	ldr	r6, [pc, #140]	; (100023d0 <vTaskPrioritySet+0xa8>)
10002344:	d81a      	bhi.n	1000237c <vTaskPrioritySet+0x54>
10002346:	6f37      	ldr	r7, [r6, #112]	; 0x70
10002348:	1b3f      	subs	r7, r7, r4
1000234a:	427a      	negs	r2, r7
1000234c:	4157      	adcs	r7, r2
1000234e:	69a2      	ldr	r2, [r4, #24]
10002350:	62e5      	str	r5, [r4, #44]	; 0x2c
10002352:	2a00      	cmp	r2, #0
10002354:	db02      	blt.n	1000235c <vTaskPrioritySet+0x34>
10002356:	2104      	movs	r1, #4
10002358:	1b4d      	subs	r5, r1, r5
1000235a:	61a5      	str	r5, [r4, #24]
1000235c:	0031      	movs	r1, r6
1000235e:	009a      	lsls	r2, r3, #2
10002360:	18d3      	adds	r3, r2, r3
10002362:	311c      	adds	r1, #28
10002364:	009b      	lsls	r3, r3, #2
10002366:	6962      	ldr	r2, [r4, #20]
10002368:	18cb      	adds	r3, r1, r3
1000236a:	429a      	cmp	r2, r3
1000236c:	d012      	beq.n	10002394 <vTaskPrioritySet+0x6c>
1000236e:	2f00      	cmp	r7, #0
10002370:	d001      	beq.n	10002376 <vTaskPrioritySet+0x4e>
10002372:	f001 faeb 	bl	1000394c <vPortYield>
10002376:	f001 fb01 	bl	1000397c <vPortExitCritical>
1000237a:	bdf8      	pop	{r3, r4, r5, r6, r7, pc}
1000237c:	6f32      	ldr	r2, [r6, #112]	; 0x70
1000237e:	42a2      	cmp	r2, r4
10002380:	d024      	beq.n	100023cc <vTaskPrioritySet+0xa4>
10002382:	2700      	movs	r7, #0
10002384:	6f32      	ldr	r2, [r6, #112]	; 0x70
10002386:	6ad2      	ldr	r2, [r2, #44]	; 0x2c
10002388:	4295      	cmp	r5, r2
1000238a:	417f      	adcs	r7, r7
1000238c:	e7df      	b.n	1000234e <vTaskPrioritySet+0x26>
1000238e:	4b10      	ldr	r3, [pc, #64]	; (100023d0 <vTaskPrioritySet+0xa8>)
10002390:	6f1c      	ldr	r4, [r3, #112]	; 0x70
10002392:	e7d3      	b.n	1000233c <vTaskPrioritySet+0x14>
10002394:	1d25      	adds	r5, r4, #4
10002396:	0028      	movs	r0, r5
10002398:	f001 fce6 	bl	10003d68 <uxListRemove>
1000239c:	4b0d      	ldr	r3, [pc, #52]	; (100023d4 <vTaskPrioritySet+0xac>)
1000239e:	6ae2      	ldr	r2, [r4, #44]	; 0x2c
100023a0:	6999      	ldr	r1, [r3, #24]
100023a2:	428a      	cmp	r2, r1
100023a4:	d900      	bls.n	100023a8 <vTaskPrioritySet+0x80>
100023a6:	619a      	str	r2, [r3, #24]
100023a8:	0093      	lsls	r3, r2, #2
100023aa:	189b      	adds	r3, r3, r2
100023ac:	009b      	lsls	r3, r3, #2
100023ae:	18f1      	adds	r1, r6, r3
100023b0:	6a0a      	ldr	r2, [r1, #32]
100023b2:	361c      	adds	r6, #28
100023b4:	6890      	ldr	r0, [r2, #8]
100023b6:	18f6      	adds	r6, r6, r3
100023b8:	60e0      	str	r0, [r4, #12]
100023ba:	69cb      	ldr	r3, [r1, #28]
100023bc:	6890      	ldr	r0, [r2, #8]
100023be:	3301      	adds	r3, #1
100023c0:	60a2      	str	r2, [r4, #8]
100023c2:	6045      	str	r5, [r0, #4]
100023c4:	6095      	str	r5, [r2, #8]
100023c6:	6166      	str	r6, [r4, #20]
100023c8:	61cb      	str	r3, [r1, #28]
100023ca:	e7d0      	b.n	1000236e <vTaskPrioritySet+0x46>
100023cc:	2700      	movs	r7, #0
100023ce:	e7be      	b.n	1000234e <vTaskPrioritySet+0x26>
100023d0:	20000364 	.word	0x20000364
100023d4:	200003e4 	.word	0x200003e4

100023d8 <vTaskSuspend>:
100023d8:	b570      	push	{r4, r5, r6, lr}
100023da:	0004      	movs	r4, r0
100023dc:	f001 fac2 	bl	10003964 <vPortEnterCritical>
100023e0:	4d47      	ldr	r5, [pc, #284]	; (10002500 <vTaskSuspend+0x128>)
100023e2:	2c00      	cmp	r4, #0
100023e4:	d047      	beq.n	10002476 <vTaskSuspend+0x9e>
100023e6:	1d26      	adds	r6, r4, #4
100023e8:	0030      	movs	r0, r6
100023ea:	f001 fcbd 	bl	10003d68 <uxListRemove>
100023ee:	6aa3      	ldr	r3, [r4, #40]	; 0x28
100023f0:	2b00      	cmp	r3, #0
100023f2:	d003      	beq.n	100023fc <vTaskSuspend+0x24>
100023f4:	0020      	movs	r0, r4
100023f6:	3018      	adds	r0, #24
100023f8:	f001 fcb6 	bl	10003d68 <uxListRemove>
100023fc:	0028      	movs	r0, r5
100023fe:	0031      	movs	r1, r6
10002400:	3074      	adds	r0, #116	; 0x74
10002402:	f001 fc8d 	bl	10003d20 <vListInsertEnd>
10002406:	2364      	movs	r3, #100	; 0x64
10002408:	5ce2      	ldrb	r2, [r4, r3]
1000240a:	2a01      	cmp	r2, #1
1000240c:	d101      	bne.n	10002412 <vTaskSuspend+0x3a>
1000240e:	2200      	movs	r2, #0
10002410:	54e2      	strb	r2, [r4, r3]
10002412:	2365      	movs	r3, #101	; 0x65
10002414:	5ce2      	ldrb	r2, [r4, r3]
10002416:	2a01      	cmp	r2, #1
10002418:	d101      	bne.n	1000241e <vTaskSuspend+0x46>
1000241a:	2200      	movs	r2, #0
1000241c:	54e2      	strb	r2, [r4, r3]
1000241e:	2366      	movs	r3, #102	; 0x66
10002420:	5ce2      	ldrb	r2, [r4, r3]
10002422:	2a01      	cmp	r2, #1
10002424:	d101      	bne.n	1000242a <vTaskSuspend+0x52>
10002426:	2200      	movs	r2, #0
10002428:	54e2      	strb	r2, [r4, r3]
1000242a:	f001 faa7 	bl	1000397c <vPortExitCritical>
1000242e:	4e35      	ldr	r6, [pc, #212]	; (10002504 <vTaskSuspend+0x12c>)
10002430:	6df3      	ldr	r3, [r6, #92]	; 0x5c
10002432:	2b00      	cmp	r3, #0
10002434:	d103      	bne.n	1000243e <vTaskSuspend+0x66>
10002436:	6f2b      	ldr	r3, [r5, #112]	; 0x70
10002438:	42a3      	cmp	r3, r4
1000243a:	d00f      	beq.n	1000245c <vTaskSuspend+0x84>
1000243c:	bd70      	pop	{r4, r5, r6, pc}
1000243e:	f001 fa91 	bl	10003964 <vPortEnterCritical>
10002442:	68f3      	ldr	r3, [r6, #12]
10002444:	681b      	ldr	r3, [r3, #0]
10002446:	2b00      	cmp	r3, #0
10002448:	d017      	beq.n	1000247a <vTaskSuspend+0xa2>
1000244a:	68f3      	ldr	r3, [r6, #12]
1000244c:	68db      	ldr	r3, [r3, #12]
1000244e:	681b      	ldr	r3, [r3, #0]
10002450:	6133      	str	r3, [r6, #16]
10002452:	f001 fa93 	bl	1000397c <vPortExitCritical>
10002456:	6f2b      	ldr	r3, [r5, #112]	; 0x70
10002458:	42a3      	cmp	r3, r4
1000245a:	d1ef      	bne.n	1000243c <vTaskSuspend+0x64>
1000245c:	6df3      	ldr	r3, [r6, #92]	; 0x5c
1000245e:	2b00      	cmp	r3, #0
10002460:	d110      	bne.n	10002484 <vTaskSuspend+0xac>
10002462:	6f69      	ldr	r1, [r5, #116]	; 0x74
10002464:	69aa      	ldr	r2, [r5, #24]
10002466:	4291      	cmp	r1, r2
10002468:	d00a      	beq.n	10002480 <vTaskSuspend+0xa8>
1000246a:	6e73      	ldr	r3, [r6, #100]	; 0x64
1000246c:	2b00      	cmp	r3, #0
1000246e:	d00c      	beq.n	1000248a <vTaskSuspend+0xb2>
10002470:	2301      	movs	r3, #1
10002472:	61f3      	str	r3, [r6, #28]
10002474:	e7e2      	b.n	1000243c <vTaskSuspend+0x64>
10002476:	6f2c      	ldr	r4, [r5, #112]	; 0x70
10002478:	e7b5      	b.n	100023e6 <vTaskSuspend+0xe>
1000247a:	3b01      	subs	r3, #1
1000247c:	6133      	str	r3, [r6, #16]
1000247e:	e7e8      	b.n	10002452 <vTaskSuspend+0x7a>
10002480:	672b      	str	r3, [r5, #112]	; 0x70
10002482:	e7db      	b.n	1000243c <vTaskSuspend+0x64>
10002484:	f001 fa62 	bl	1000394c <vPortYield>
10002488:	e7d8      	b.n	1000243c <vTaskSuspend+0x64>
1000248a:	61f3      	str	r3, [r6, #28]
1000248c:	69b2      	ldr	r2, [r6, #24]
1000248e:	0093      	lsls	r3, r2, #2
10002490:	1899      	adds	r1, r3, r2
10002492:	0089      	lsls	r1, r1, #2
10002494:	1869      	adds	r1, r5, r1
10002496:	69c9      	ldr	r1, [r1, #28]
10002498:	2900      	cmp	r1, #0
1000249a:	d11d      	bne.n	100024d8 <vTaskSuspend+0x100>
1000249c:	1e50      	subs	r0, r2, #1
1000249e:	0083      	lsls	r3, r0, #2
100024a0:	1819      	adds	r1, r3, r0
100024a2:	0089      	lsls	r1, r1, #2
100024a4:	1869      	adds	r1, r5, r1
100024a6:	69c9      	ldr	r1, [r1, #28]
100024a8:	2900      	cmp	r1, #0
100024aa:	d126      	bne.n	100024fa <vTaskSuspend+0x122>
100024ac:	1e90      	subs	r0, r2, #2
100024ae:	0083      	lsls	r3, r0, #2
100024b0:	1819      	adds	r1, r3, r0
100024b2:	0089      	lsls	r1, r1, #2
100024b4:	1869      	adds	r1, r5, r1
100024b6:	69c9      	ldr	r1, [r1, #28]
100024b8:	2900      	cmp	r1, #0
100024ba:	d11e      	bne.n	100024fa <vTaskSuspend+0x122>
100024bc:	1ed0      	subs	r0, r2, #3
100024be:	0083      	lsls	r3, r0, #2
100024c0:	1819      	adds	r1, r3, r0
100024c2:	0089      	lsls	r1, r1, #2
100024c4:	1869      	adds	r1, r5, r1
100024c6:	69c9      	ldr	r1, [r1, #28]
100024c8:	2900      	cmp	r1, #0
100024ca:	d116      	bne.n	100024fa <vTaskSuspend+0x122>
100024cc:	3a04      	subs	r2, #4
100024ce:	0093      	lsls	r3, r2, #2
100024d0:	1899      	adds	r1, r3, r2
100024d2:	0089      	lsls	r1, r1, #2
100024d4:	1869      	adds	r1, r5, r1
100024d6:	69c9      	ldr	r1, [r1, #28]
100024d8:	189b      	adds	r3, r3, r2
100024da:	009b      	lsls	r3, r3, #2
100024dc:	18e8      	adds	r0, r5, r3
100024de:	0003      	movs	r3, r0
100024e0:	6a01      	ldr	r1, [r0, #32]
100024e2:	3324      	adds	r3, #36	; 0x24
100024e4:	6849      	ldr	r1, [r1, #4]
100024e6:	6201      	str	r1, [r0, #32]
100024e8:	4299      	cmp	r1, r3
100024ea:	d003      	beq.n	100024f4 <vTaskSuspend+0x11c>
100024ec:	68cb      	ldr	r3, [r1, #12]
100024ee:	672b      	str	r3, [r5, #112]	; 0x70
100024f0:	61b2      	str	r2, [r6, #24]
100024f2:	e7a3      	b.n	1000243c <vTaskSuspend+0x64>
100024f4:	6849      	ldr	r1, [r1, #4]
100024f6:	6201      	str	r1, [r0, #32]
100024f8:	e7f8      	b.n	100024ec <vTaskSuspend+0x114>
100024fa:	0002      	movs	r2, r0
100024fc:	e7ec      	b.n	100024d8 <vTaskSuspend+0x100>
100024fe:	46c0      	nop			; (mov r8, r8)
10002500:	20000364 	.word	0x20000364
10002504:	200003e4 	.word	0x200003e4

10002508 <vTaskResume>:
10002508:	b5f8      	push	{r3, r4, r5, r6, r7, lr}
1000250a:	4d1d      	ldr	r5, [pc, #116]	; (10002580 <vTaskResume+0x78>)
1000250c:	0004      	movs	r4, r0
1000250e:	6f2b      	ldr	r3, [r5, #112]	; 0x70
10002510:	4283      	cmp	r3, r0
10002512:	d00a      	beq.n	1000252a <vTaskResume+0x22>
10002514:	2800      	cmp	r0, #0
10002516:	d008      	beq.n	1000252a <vTaskResume+0x22>
10002518:	f001 fa24 	bl	10003964 <vPortEnterCritical>
1000251c:	002b      	movs	r3, r5
1000251e:	6962      	ldr	r2, [r4, #20]
10002520:	3374      	adds	r3, #116	; 0x74
10002522:	429a      	cmp	r2, r3
10002524:	d002      	beq.n	1000252c <vTaskResume+0x24>
10002526:	f001 fa29 	bl	1000397c <vPortExitCritical>
1000252a:	bdf8      	pop	{r3, r4, r5, r6, r7, pc}
1000252c:	4e15      	ldr	r6, [pc, #84]	; (10002584 <vTaskResume+0x7c>)
1000252e:	6aa3      	ldr	r3, [r4, #40]	; 0x28
10002530:	0032      	movs	r2, r6
10002532:	3248      	adds	r2, #72	; 0x48
10002534:	4293      	cmp	r3, r2
10002536:	d0f6      	beq.n	10002526 <vTaskResume+0x1e>
10002538:	2b00      	cmp	r3, #0
1000253a:	d1f4      	bne.n	10002526 <vTaskResume+0x1e>
1000253c:	1d27      	adds	r7, r4, #4
1000253e:	0038      	movs	r0, r7
10002540:	f001 fc12 	bl	10003d68 <uxListRemove>
10002544:	6ae2      	ldr	r2, [r4, #44]	; 0x2c
10002546:	69b3      	ldr	r3, [r6, #24]
10002548:	429a      	cmp	r2, r3
1000254a:	d900      	bls.n	1000254e <vTaskResume+0x46>
1000254c:	61b2      	str	r2, [r6, #24]
1000254e:	0093      	lsls	r3, r2, #2
10002550:	189b      	adds	r3, r3, r2
10002552:	009b      	lsls	r3, r3, #2
10002554:	18e8      	adds	r0, r5, r3
10002556:	6a01      	ldr	r1, [r0, #32]
10002558:	688e      	ldr	r6, [r1, #8]
1000255a:	60a1      	str	r1, [r4, #8]
1000255c:	60e6      	str	r6, [r4, #12]
1000255e:	688e      	ldr	r6, [r1, #8]
10002560:	6077      	str	r7, [r6, #4]
10002562:	608f      	str	r7, [r1, #8]
10002564:	0029      	movs	r1, r5
10002566:	311c      	adds	r1, #28
10002568:	18cb      	adds	r3, r1, r3
1000256a:	6163      	str	r3, [r4, #20]
1000256c:	69c3      	ldr	r3, [r0, #28]
1000256e:	3301      	adds	r3, #1
10002570:	61c3      	str	r3, [r0, #28]
10002572:	6f2b      	ldr	r3, [r5, #112]	; 0x70
10002574:	6adb      	ldr	r3, [r3, #44]	; 0x2c
10002576:	429a      	cmp	r2, r3
10002578:	d3d5      	bcc.n	10002526 <vTaskResume+0x1e>
1000257a:	f001 f9e7 	bl	1000394c <vPortYield>
1000257e:	e7d2      	b.n	10002526 <vTaskResume+0x1e>
10002580:	20000364 	.word	0x20000364
10002584:	200003e4 	.word	0x200003e4

10002588 <xTaskResumeFromISR>:
10002588:	b5f8      	push	{r3, r4, r5, r6, r7, lr}
1000258a:	46ce      	mov	lr, r9
1000258c:	4647      	mov	r7, r8
1000258e:	b580      	push	{r7, lr}
10002590:	0004      	movs	r4, r0
10002592:	f001 f9fd 	bl	10003990 <ulSetInterruptMaskFromISR>
10002596:	4e25      	ldr	r6, [pc, #148]	; (1000262c <xTaskResumeFromISR+0xa4>)
10002598:	6962      	ldr	r2, [r4, #20]
1000259a:	0033      	movs	r3, r6
1000259c:	3374      	adds	r3, #116	; 0x74
1000259e:	0005      	movs	r5, r0
100025a0:	2700      	movs	r7, #0
100025a2:	429a      	cmp	r2, r3
100025a4:	d007      	beq.n	100025b6 <xTaskResumeFromISR+0x2e>
100025a6:	0028      	movs	r0, r5
100025a8:	f001 f9f6 	bl	10003998 <vClearInterruptMaskFromISR>
100025ac:	0038      	movs	r0, r7
100025ae:	bc0c      	pop	{r2, r3}
100025b0:	4690      	mov	r8, r2
100025b2:	4699      	mov	r9, r3
100025b4:	bdf8      	pop	{r3, r4, r5, r6, r7, pc}
100025b6:	4a1e      	ldr	r2, [pc, #120]	; (10002630 <xTaskResumeFromISR+0xa8>)
100025b8:	6aa3      	ldr	r3, [r4, #40]	; 0x28
100025ba:	0010      	movs	r0, r2
100025bc:	3048      	adds	r0, #72	; 0x48
100025be:	4690      	mov	r8, r2
100025c0:	4283      	cmp	r3, r0
100025c2:	d0f0      	beq.n	100025a6 <xTaskResumeFromISR+0x1e>
100025c4:	2b00      	cmp	r3, #0
100025c6:	d1ee      	bne.n	100025a6 <xTaskResumeFromISR+0x1e>
100025c8:	6e53      	ldr	r3, [r2, #100]	; 0x64
100025ca:	2b00      	cmp	r3, #0
100025cc:	d128      	bne.n	10002620 <xTaskResumeFromISR+0x98>
100025ce:	6f33      	ldr	r3, [r6, #112]	; 0x70
100025d0:	6ae2      	ldr	r2, [r4, #44]	; 0x2c
100025d2:	6adb      	ldr	r3, [r3, #44]	; 0x2c
100025d4:	429a      	cmp	r2, r3
100025d6:	d303      	bcc.n	100025e0 <xTaskResumeFromISR+0x58>
100025d8:	2301      	movs	r3, #1
100025da:	4642      	mov	r2, r8
100025dc:	3701      	adds	r7, #1
100025de:	61d3      	str	r3, [r2, #28]
100025e0:	1d23      	adds	r3, r4, #4
100025e2:	0018      	movs	r0, r3
100025e4:	4699      	mov	r9, r3
100025e6:	f001 fbbf 	bl	10003d68 <uxListRemove>
100025ea:	4643      	mov	r3, r8
100025ec:	6ae2      	ldr	r2, [r4, #44]	; 0x2c
100025ee:	699b      	ldr	r3, [r3, #24]
100025f0:	429a      	cmp	r2, r3
100025f2:	d901      	bls.n	100025f8 <xTaskResumeFromISR+0x70>
100025f4:	4643      	mov	r3, r8
100025f6:	619a      	str	r2, [r3, #24]
100025f8:	0093      	lsls	r3, r2, #2
100025fa:	189b      	adds	r3, r3, r2
100025fc:	009b      	lsls	r3, r3, #2
100025fe:	18f1      	adds	r1, r6, r3
10002600:	469c      	mov	ip, r3
10002602:	464b      	mov	r3, r9
10002604:	6a0a      	ldr	r2, [r1, #32]
10002606:	361c      	adds	r6, #28
10002608:	6890      	ldr	r0, [r2, #8]
1000260a:	60a2      	str	r2, [r4, #8]
1000260c:	60e0      	str	r0, [r4, #12]
1000260e:	6890      	ldr	r0, [r2, #8]
10002610:	4466      	add	r6, ip
10002612:	6043      	str	r3, [r0, #4]
10002614:	6093      	str	r3, [r2, #8]
10002616:	69cb      	ldr	r3, [r1, #28]
10002618:	6166      	str	r6, [r4, #20]
1000261a:	3301      	adds	r3, #1
1000261c:	61cb      	str	r3, [r1, #28]
1000261e:	e7c2      	b.n	100025a6 <xTaskResumeFromISR+0x1e>
10002620:	0021      	movs	r1, r4
10002622:	3118      	adds	r1, #24
10002624:	f001 fb7c 	bl	10003d20 <vListInsertEnd>
10002628:	e7bd      	b.n	100025a6 <xTaskResumeFromISR+0x1e>
1000262a:	46c0      	nop			; (mov r8, r8)
1000262c:	20000364 	.word	0x20000364
10002630:	200003e4 	.word	0x200003e4

10002634 <vTaskStartScheduler>:
10002634:	b5f8      	push	{r3, r4, r5, r6, r7, lr}
10002636:	2080      	movs	r0, #128	; 0x80
10002638:	46ce      	mov	lr, r9
1000263a:	4647      	mov	r7, r8
1000263c:	00c0      	lsls	r0, r0, #3
1000263e:	b580      	push	{r7, lr}
10002640:	f001 fa18 	bl	10003a74 <pvPortMalloc>
10002644:	1e05      	subs	r5, r0, #0
10002646:	d067      	beq.n	10002718 <vTaskStartScheduler+0xe4>
10002648:	2068      	movs	r0, #104	; 0x68
1000264a:	f001 fa13 	bl	10003a74 <pvPortMalloc>
1000264e:	1e04      	subs	r4, r0, #0
10002650:	d068      	beq.n	10002724 <vTaskStartScheduler+0xf0>
10002652:	2100      	movs	r1, #0
10002654:	2268      	movs	r2, #104	; 0x68
10002656:	f7ff fa0d 	bl	10001a74 <__wrap_memset>
1000265a:	23ff      	movs	r3, #255	; 0xff
1000265c:	009b      	lsls	r3, r3, #2
1000265e:	469c      	mov	ip, r3
10002660:	2307      	movs	r3, #7
10002662:	6325      	str	r5, [r4, #48]	; 0x30
10002664:	4465      	add	r5, ip
10002666:	439d      	bics	r5, r3
10002668:	4b4d      	ldr	r3, [pc, #308]	; (100027a0 <vTaskStartScheduler+0x16c>)
1000266a:	2238      	movs	r2, #56	; 0x38
1000266c:	6363      	str	r3, [r4, #52]	; 0x34
1000266e:	2300      	movs	r3, #0
10002670:	1d27      	adds	r7, r4, #4
10002672:	54a3      	strb	r3, [r4, r2]
10002674:	320b      	adds	r2, #11
10002676:	54a3      	strb	r3, [r4, r2]
10002678:	0038      	movs	r0, r7
1000267a:	f001 fb4d 	bl	10003d18 <vListInitialiseItem>
1000267e:	0020      	movs	r0, r4
10002680:	3018      	adds	r0, #24
10002682:	f001 fb49 	bl	10003d18 <vListInitialiseItem>
10002686:	2304      	movs	r3, #4
10002688:	2200      	movs	r2, #0
1000268a:	61a3      	str	r3, [r4, #24]
1000268c:	0028      	movs	r0, r5
1000268e:	4945      	ldr	r1, [pc, #276]	; (100027a4 <vTaskStartScheduler+0x170>)
10002690:	6124      	str	r4, [r4, #16]
10002692:	6264      	str	r4, [r4, #36]	; 0x24
10002694:	f001 f946 	bl	10003924 <pxPortInitialiseStack>
10002698:	4e43      	ldr	r6, [pc, #268]	; (100027a8 <vTaskStartScheduler+0x174>)
1000269a:	6020      	str	r0, [r4, #0]
1000269c:	66b4      	str	r4, [r6, #104]	; 0x68
1000269e:	f001 f961 	bl	10003964 <vPortEnterCritical>
100026a2:	4d42      	ldr	r5, [pc, #264]	; (100027ac <vTaskStartScheduler+0x178>)
100026a4:	69ab      	ldr	r3, [r5, #24]
100026a6:	3301      	adds	r3, #1
100026a8:	61ab      	str	r3, [r5, #24]
100026aa:	6f2b      	ldr	r3, [r5, #112]	; 0x70
100026ac:	2b00      	cmp	r3, #0
100026ae:	d044      	beq.n	1000273a <vTaskStartScheduler+0x106>
100026b0:	6df3      	ldr	r3, [r6, #92]	; 0x5c
100026b2:	2b00      	cmp	r3, #0
100026b4:	d03a      	beq.n	1000272c <vTaskStartScheduler+0xf8>
100026b6:	6ae2      	ldr	r2, [r4, #44]	; 0x2c
100026b8:	6e33      	ldr	r3, [r6, #96]	; 0x60
100026ba:	3301      	adds	r3, #1
100026bc:	6633      	str	r3, [r6, #96]	; 0x60
100026be:	69b3      	ldr	r3, [r6, #24]
100026c0:	4293      	cmp	r3, r2
100026c2:	d200      	bcs.n	100026c6 <vTaskStartScheduler+0x92>
100026c4:	61b2      	str	r2, [r6, #24]
100026c6:	0093      	lsls	r3, r2, #2
100026c8:	189b      	adds	r3, r3, r2
100026ca:	009b      	lsls	r3, r3, #2
100026cc:	18e9      	adds	r1, r5, r3
100026ce:	6a0a      	ldr	r2, [r1, #32]
100026d0:	6890      	ldr	r0, [r2, #8]
100026d2:	60a2      	str	r2, [r4, #8]
100026d4:	60e0      	str	r0, [r4, #12]
100026d6:	6890      	ldr	r0, [r2, #8]
100026d8:	6047      	str	r7, [r0, #4]
100026da:	6097      	str	r7, [r2, #8]
100026dc:	002a      	movs	r2, r5
100026de:	321c      	adds	r2, #28
100026e0:	18d3      	adds	r3, r2, r3
100026e2:	6163      	str	r3, [r4, #20]
100026e4:	69cb      	ldr	r3, [r1, #28]
100026e6:	3301      	adds	r3, #1
100026e8:	61cb      	str	r3, [r1, #28]
100026ea:	f001 f947 	bl	1000397c <vPortExitCritical>
100026ee:	6df3      	ldr	r3, [r6, #92]	; 0x5c
100026f0:	2b00      	cmp	r3, #0
100026f2:	d004      	beq.n	100026fe <vTaskStartScheduler+0xca>
100026f4:	6f2b      	ldr	r3, [r5, #112]	; 0x70
100026f6:	6ada      	ldr	r2, [r3, #44]	; 0x2c
100026f8:	6ae3      	ldr	r3, [r4, #44]	; 0x2c
100026fa:	429a      	cmp	r2, r3
100026fc:	d34d      	bcc.n	1000279a <vTaskStartScheduler+0x166>
100026fe:	f000 ffdf 	bl	100036c0 <xTimerCreateTimerTask>
10002702:	2801      	cmp	r0, #1
10002704:	d108      	bne.n	10002718 <vTaskStartScheduler+0xe4>
10002706:	b672      	cpsid	i
10002708:	2301      	movs	r3, #1
1000270a:	425b      	negs	r3, r3
1000270c:	6133      	str	r3, [r6, #16]
1000270e:	2300      	movs	r3, #0
10002710:	65f0      	str	r0, [r6, #92]	; 0x5c
10002712:	66eb      	str	r3, [r5, #108]	; 0x6c
10002714:	f001 f98c 	bl	10003a30 <xPortStartScheduler>
10002718:	4b25      	ldr	r3, [pc, #148]	; (100027b0 <vTaskStartScheduler+0x17c>)
1000271a:	681b      	ldr	r3, [r3, #0]
1000271c:	bc0c      	pop	{r2, r3}
1000271e:	4690      	mov	r8, r2
10002720:	4699      	mov	r9, r3
10002722:	bdf8      	pop	{r3, r4, r5, r6, r7, pc}
10002724:	0028      	movs	r0, r5
10002726:	f001 fa3d 	bl	10003ba4 <vPortFree>
1000272a:	e7f5      	b.n	10002718 <vTaskStartScheduler+0xe4>
1000272c:	6f2b      	ldr	r3, [r5, #112]	; 0x70
1000272e:	6ae2      	ldr	r2, [r4, #44]	; 0x2c
10002730:	6adb      	ldr	r3, [r3, #44]	; 0x2c
10002732:	4293      	cmp	r3, r2
10002734:	d8c0      	bhi.n	100026b8 <vTaskStartScheduler+0x84>
10002736:	672c      	str	r4, [r5, #112]	; 0x70
10002738:	e7be      	b.n	100026b8 <vTaskStartScheduler+0x84>
1000273a:	672c      	str	r4, [r5, #112]	; 0x70
1000273c:	69ab      	ldr	r3, [r5, #24]
1000273e:	2b01      	cmp	r3, #1
10002740:	d1b9      	bne.n	100026b6 <vTaskStartScheduler+0x82>
10002742:	0028      	movs	r0, r5
10002744:	301c      	adds	r0, #28
10002746:	f001 fadb 	bl	10003d00 <vListInitialise>
1000274a:	0028      	movs	r0, r5
1000274c:	3030      	adds	r0, #48	; 0x30
1000274e:	f001 fad7 	bl	10003d00 <vListInitialise>
10002752:	0028      	movs	r0, r5
10002754:	3044      	adds	r0, #68	; 0x44
10002756:	f001 fad3 	bl	10003d00 <vListInitialise>
1000275a:	0028      	movs	r0, r5
1000275c:	3058      	adds	r0, #88	; 0x58
1000275e:	f001 facf 	bl	10003d00 <vListInitialise>
10002762:	2320      	movs	r3, #32
10002764:	4699      	mov	r9, r3
10002766:	44b1      	add	r9, r6
10002768:	4648      	mov	r0, r9
1000276a:	f001 fac9 	bl	10003d00 <vListInitialise>
1000276e:	2334      	movs	r3, #52	; 0x34
10002770:	4698      	mov	r8, r3
10002772:	44b0      	add	r8, r6
10002774:	4640      	mov	r0, r8
10002776:	f001 fac3 	bl	10003d00 <vListInitialise>
1000277a:	0030      	movs	r0, r6
1000277c:	3048      	adds	r0, #72	; 0x48
1000277e:	f001 fabf 	bl	10003d00 <vListInitialise>
10002782:	1d28      	adds	r0, r5, #4
10002784:	f001 fabc 	bl	10003d00 <vListInitialise>
10002788:	0028      	movs	r0, r5
1000278a:	3074      	adds	r0, #116	; 0x74
1000278c:	f001 fab8 	bl	10003d00 <vListInitialise>
10002790:	464b      	mov	r3, r9
10002792:	60f3      	str	r3, [r6, #12]
10002794:	4643      	mov	r3, r8
10002796:	60b3      	str	r3, [r6, #8]
10002798:	e78d      	b.n	100026b6 <vTaskStartScheduler+0x82>
1000279a:	f001 f8d7 	bl	1000394c <vPortYield>
1000279e:	e7ae      	b.n	100026fe <vTaskStartScheduler+0xca>
100027a0:	454c4449 	.word	0x454c4449
100027a4:	10001e21 	.word	0x10001e21
100027a8:	200003e4 	.word	0x200003e4
100027ac:	20000364 	.word	0x20000364
100027b0:	20000224 	.word	0x20000224

100027b4 <vTaskEndScheduler>:
100027b4:	b510      	push	{r4, lr}
100027b6:	b672      	cpsid	i
100027b8:	2200      	movs	r2, #0
100027ba:	4b02      	ldr	r3, [pc, #8]	; (100027c4 <vTaskEndScheduler+0x10>)
100027bc:	65da      	str	r2, [r3, #92]	; 0x5c
100027be:	f001 f8c3 	bl	10003948 <vPortEndScheduler>
100027c2:	bd10      	pop	{r4, pc}
100027c4:	200003e4 	.word	0x200003e4

100027c8 <vTaskSuspendAll>:
100027c8:	4a02      	ldr	r2, [pc, #8]	; (100027d4 <vTaskSuspendAll+0xc>)
100027ca:	6e53      	ldr	r3, [r2, #100]	; 0x64
100027cc:	3301      	adds	r3, #1
100027ce:	6653      	str	r3, [r2, #100]	; 0x64
100027d0:	4770      	bx	lr
100027d2:	46c0      	nop			; (mov r8, r8)
100027d4:	200003e4 	.word	0x200003e4

100027d8 <xTaskResumeAll>:
100027d8:	b5f0      	push	{r4, r5, r6, r7, lr}
100027da:	46d6      	mov	lr, sl
100027dc:	464f      	mov	r7, r9
100027de:	4646      	mov	r6, r8
100027e0:	b5c0      	push	{r6, r7, lr}
100027e2:	f001 f8bf 	bl	10003964 <vPortEnterCritical>
100027e6:	4c47      	ldr	r4, [pc, #284]	; (10002904 <xTaskResumeAll+0x12c>)
100027e8:	6e63      	ldr	r3, [r4, #100]	; 0x64
100027ea:	3b01      	subs	r3, #1
100027ec:	6663      	str	r3, [r4, #100]	; 0x64
100027ee:	6e63      	ldr	r3, [r4, #100]	; 0x64
100027f0:	2b00      	cmp	r3, #0
100027f2:	d16c      	bne.n	100028ce <xTaskResumeAll+0xf6>
100027f4:	4b44      	ldr	r3, [pc, #272]	; (10002908 <xTaskResumeAll+0x130>)
100027f6:	469a      	mov	sl, r3
100027f8:	699b      	ldr	r3, [r3, #24]
100027fa:	2b00      	cmp	r3, #0
100027fc:	d067      	beq.n	100028ce <xTaskResumeAll+0xf6>
100027fe:	6ca3      	ldr	r3, [r4, #72]	; 0x48
10002800:	2b00      	cmp	r3, #0
10002802:	d04a      	beq.n	1000289a <xTaskResumeAll+0xc2>
10002804:	2300      	movs	r3, #0
10002806:	469c      	mov	ip, r3
10002808:	331c      	adds	r3, #28
1000280a:	4699      	mov	r9, r3
1000280c:	3b1b      	subs	r3, #27
1000280e:	4698      	mov	r8, r3
10002810:	44d1      	add	r9, sl
10002812:	6d63      	ldr	r3, [r4, #84]	; 0x54
10002814:	68db      	ldr	r3, [r3, #12]
10002816:	69d8      	ldr	r0, [r3, #28]
10002818:	6a1e      	ldr	r6, [r3, #32]
1000281a:	6a9a      	ldr	r2, [r3, #40]	; 0x28
1000281c:	6086      	str	r6, [r0, #8]
1000281e:	6a19      	ldr	r1, [r3, #32]
10002820:	6048      	str	r0, [r1, #4]
10002822:	0019      	movs	r1, r3
10002824:	6850      	ldr	r0, [r2, #4]
10002826:	3118      	adds	r1, #24
10002828:	4288      	cmp	r0, r1
1000282a:	d05f      	beq.n	100028ec <xTaskResumeAll+0x114>
1000282c:	4661      	mov	r1, ip
1000282e:	6299      	str	r1, [r3, #40]	; 0x28
10002830:	6811      	ldr	r1, [r2, #0]
10002832:	3901      	subs	r1, #1
10002834:	6011      	str	r1, [r2, #0]
10002836:	695a      	ldr	r2, [r3, #20]
10002838:	6898      	ldr	r0, [r3, #8]
1000283a:	68d9      	ldr	r1, [r3, #12]
1000283c:	1d1f      	adds	r7, r3, #4
1000283e:	6081      	str	r1, [r0, #8]
10002840:	6048      	str	r0, [r1, #4]
10002842:	6850      	ldr	r0, [r2, #4]
10002844:	42b8      	cmp	r0, r7
10002846:	d04f      	beq.n	100028e8 <xTaskResumeAll+0x110>
10002848:	6811      	ldr	r1, [r2, #0]
1000284a:	3901      	subs	r1, #1
1000284c:	6011      	str	r1, [r2, #0]
1000284e:	69a2      	ldr	r2, [r4, #24]
10002850:	6ad9      	ldr	r1, [r3, #44]	; 0x2c
10002852:	4291      	cmp	r1, r2
10002854:	d900      	bls.n	10002858 <xTaskResumeAll+0x80>
10002856:	61a1      	str	r1, [r4, #24]
10002858:	4650      	mov	r0, sl
1000285a:	008a      	lsls	r2, r1, #2
1000285c:	1852      	adds	r2, r2, r1
1000285e:	0092      	lsls	r2, r2, #2
10002860:	1886      	adds	r6, r0, r2
10002862:	6a30      	ldr	r0, [r6, #32]
10002864:	444a      	add	r2, r9
10002866:	6885      	ldr	r5, [r0, #8]
10002868:	6098      	str	r0, [r3, #8]
1000286a:	60dd      	str	r5, [r3, #12]
1000286c:	6885      	ldr	r5, [r0, #8]
1000286e:	606f      	str	r7, [r5, #4]
10002870:	6087      	str	r7, [r0, #8]
10002872:	615a      	str	r2, [r3, #20]
10002874:	69f3      	ldr	r3, [r6, #28]
10002876:	3301      	adds	r3, #1
10002878:	61f3      	str	r3, [r6, #28]
1000287a:	4653      	mov	r3, sl
1000287c:	6f1b      	ldr	r3, [r3, #112]	; 0x70
1000287e:	6adb      	ldr	r3, [r3, #44]	; 0x2c
10002880:	4299      	cmp	r1, r3
10002882:	d32d      	bcc.n	100028e0 <xTaskResumeAll+0x108>
10002884:	4643      	mov	r3, r8
10002886:	61e3      	str	r3, [r4, #28]
10002888:	6ca3      	ldr	r3, [r4, #72]	; 0x48
1000288a:	2b00      	cmp	r3, #0
1000288c:	d1c1      	bne.n	10002812 <xTaskResumeAll+0x3a>
1000288e:	68e3      	ldr	r3, [r4, #12]
10002890:	681b      	ldr	r3, [r3, #0]
10002892:	2b00      	cmp	r3, #0
10002894:	d12c      	bne.n	100028f0 <xTaskResumeAll+0x118>
10002896:	3b01      	subs	r3, #1
10002898:	6123      	str	r3, [r4, #16]
1000289a:	6ee5      	ldr	r5, [r4, #108]	; 0x6c
1000289c:	2d00      	cmp	r5, #0
1000289e:	d013      	beq.n	100028c8 <xTaskResumeAll+0xf0>
100028a0:	2601      	movs	r6, #1
100028a2:	e007      	b.n	100028b4 <xTaskResumeAll+0xdc>
100028a4:	f7ff fb1e 	bl	10001ee4 <xTaskIncrementTick.part.0>
100028a8:	2800      	cmp	r0, #0
100028aa:	d000      	beq.n	100028ae <xTaskResumeAll+0xd6>
100028ac:	61e6      	str	r6, [r4, #28]
100028ae:	3d01      	subs	r5, #1
100028b0:	2d00      	cmp	r5, #0
100028b2:	d008      	beq.n	100028c6 <xTaskResumeAll+0xee>
100028b4:	6e63      	ldr	r3, [r4, #100]	; 0x64
100028b6:	2b00      	cmp	r3, #0
100028b8:	d0f4      	beq.n	100028a4 <xTaskResumeAll+0xcc>
100028ba:	6ee3      	ldr	r3, [r4, #108]	; 0x6c
100028bc:	3d01      	subs	r5, #1
100028be:	3301      	adds	r3, #1
100028c0:	66e3      	str	r3, [r4, #108]	; 0x6c
100028c2:	2d00      	cmp	r5, #0
100028c4:	d1f6      	bne.n	100028b4 <xTaskResumeAll+0xdc>
100028c6:	66e5      	str	r5, [r4, #108]	; 0x6c
100028c8:	69e3      	ldr	r3, [r4, #28]
100028ca:	2b00      	cmp	r3, #0
100028cc:	d115      	bne.n	100028fa <xTaskResumeAll+0x122>
100028ce:	2400      	movs	r4, #0
100028d0:	f001 f854 	bl	1000397c <vPortExitCritical>
100028d4:	0020      	movs	r0, r4
100028d6:	bc1c      	pop	{r2, r3, r4}
100028d8:	4690      	mov	r8, r2
100028da:	4699      	mov	r9, r3
100028dc:	46a2      	mov	sl, r4
100028de:	bdf0      	pop	{r4, r5, r6, r7, pc}
100028e0:	6ca3      	ldr	r3, [r4, #72]	; 0x48
100028e2:	2b00      	cmp	r3, #0
100028e4:	d195      	bne.n	10002812 <xTaskResumeAll+0x3a>
100028e6:	e7d2      	b.n	1000288e <xTaskResumeAll+0xb6>
100028e8:	6051      	str	r1, [r2, #4]
100028ea:	e7ad      	b.n	10002848 <xTaskResumeAll+0x70>
100028ec:	6056      	str	r6, [r2, #4]
100028ee:	e79d      	b.n	1000282c <xTaskResumeAll+0x54>
100028f0:	68e3      	ldr	r3, [r4, #12]
100028f2:	68db      	ldr	r3, [r3, #12]
100028f4:	681b      	ldr	r3, [r3, #0]
100028f6:	6123      	str	r3, [r4, #16]
100028f8:	e7cf      	b.n	1000289a <xTaskResumeAll+0xc2>
100028fa:	f001 f827 	bl	1000394c <vPortYield>
100028fe:	2401      	movs	r4, #1
10002900:	e7e6      	b.n	100028d0 <xTaskResumeAll+0xf8>
10002902:	46c0      	nop			; (mov r8, r8)
10002904:	200003e4 	.word	0x200003e4
10002908:	20000364 	.word	0x20000364

1000290c <xTaskDelayUntil>:
1000290c:	b5f0      	push	{r4, r5, r6, r7, lr}
1000290e:	46c6      	mov	lr, r8
10002910:	4f1f      	ldr	r7, [pc, #124]	; (10002990 <xTaskDelayUntil+0x84>)
10002912:	b500      	push	{lr}
10002914:	6e7b      	ldr	r3, [r7, #100]	; 0x64
10002916:	3301      	adds	r3, #1
10002918:	667b      	str	r3, [r7, #100]	; 0x64
1000291a:	4e1e      	ldr	r6, [pc, #120]	; (10002994 <xTaskDelayUntil+0x88>)
1000291c:	6802      	ldr	r2, [r0, #0]
1000291e:	6ef5      	ldr	r5, [r6, #108]	; 0x6c
10002920:	1854      	adds	r4, r2, r1
10002922:	6004      	str	r4, [r0, #0]
10002924:	42aa      	cmp	r2, r5
10002926:	d90a      	bls.n	1000293e <xTaskDelayUntil+0x32>
10002928:	42a2      	cmp	r2, r4
1000292a:	d80a      	bhi.n	10002942 <xTaskDelayUntil+0x36>
1000292c:	2500      	movs	r5, #0
1000292e:	f7ff ff53 	bl	100027d8 <xTaskResumeAll>
10002932:	2800      	cmp	r0, #0
10002934:	d01d      	beq.n	10002972 <xTaskDelayUntil+0x66>
10002936:	0028      	movs	r0, r5
10002938:	bc04      	pop	{r2}
1000293a:	4690      	mov	r8, r2
1000293c:	bdf0      	pop	{r4, r5, r6, r7, pc}
1000293e:	42a2      	cmp	r2, r4
10002940:	d801      	bhi.n	10002946 <xTaskDelayUntil+0x3a>
10002942:	42a5      	cmp	r5, r4
10002944:	d2f2      	bcs.n	1000292c <xTaskDelayUntil+0x20>
10002946:	6ef3      	ldr	r3, [r6, #108]	; 0x6c
10002948:	6f30      	ldr	r0, [r6, #112]	; 0x70
1000294a:	4698      	mov	r8, r3
1000294c:	3004      	adds	r0, #4
1000294e:	1b5d      	subs	r5, r3, r5
10002950:	f001 fa0a 	bl	10003d68 <uxListRemove>
10002954:	6f33      	ldr	r3, [r6, #112]	; 0x70
10002956:	1964      	adds	r4, r4, r5
10002958:	605c      	str	r4, [r3, #4]
1000295a:	45a0      	cmp	r8, r4
1000295c:	d90c      	bls.n	10002978 <xTaskDelayUntil+0x6c>
1000295e:	68b8      	ldr	r0, [r7, #8]
10002960:	6f31      	ldr	r1, [r6, #112]	; 0x70
10002962:	2501      	movs	r5, #1
10002964:	3104      	adds	r1, #4
10002966:	f001 f9e7 	bl	10003d38 <vListInsert>
1000296a:	f7ff ff35 	bl	100027d8 <xTaskResumeAll>
1000296e:	2800      	cmp	r0, #0
10002970:	d1e1      	bne.n	10002936 <xTaskDelayUntil+0x2a>
10002972:	f000 ffeb 	bl	1000394c <vPortYield>
10002976:	e7de      	b.n	10002936 <xTaskDelayUntil+0x2a>
10002978:	68f8      	ldr	r0, [r7, #12]
1000297a:	6f31      	ldr	r1, [r6, #112]	; 0x70
1000297c:	2501      	movs	r5, #1
1000297e:	3104      	adds	r1, #4
10002980:	f001 f9da 	bl	10003d38 <vListInsert>
10002984:	693b      	ldr	r3, [r7, #16]
10002986:	429c      	cmp	r4, r3
10002988:	d2d1      	bcs.n	1000292e <xTaskDelayUntil+0x22>
1000298a:	613c      	str	r4, [r7, #16]
1000298c:	e7cf      	b.n	1000292e <xTaskDelayUntil+0x22>
1000298e:	46c0      	nop			; (mov r8, r8)
10002990:	200003e4 	.word	0x200003e4
10002994:	20000364 	.word	0x20000364

10002998 <vTaskDelay>:
10002998:	b5f8      	push	{r3, r4, r5, r6, r7, lr}
1000299a:	1e04      	subs	r4, r0, #0
1000299c:	d017      	beq.n	100029ce <vTaskDelay+0x36>
1000299e:	4e12      	ldr	r6, [pc, #72]	; (100029e8 <vTaskDelay+0x50>)
100029a0:	6e73      	ldr	r3, [r6, #100]	; 0x64
100029a2:	3301      	adds	r3, #1
100029a4:	6673      	str	r3, [r6, #100]	; 0x64
100029a6:	4d11      	ldr	r5, [pc, #68]	; (100029ec <vTaskDelay+0x54>)
100029a8:	6eef      	ldr	r7, [r5, #108]	; 0x6c
100029aa:	6f28      	ldr	r0, [r5, #112]	; 0x70
100029ac:	19e4      	adds	r4, r4, r7
100029ae:	3004      	adds	r0, #4
100029b0:	f001 f9da 	bl	10003d68 <uxListRemove>
100029b4:	6f2b      	ldr	r3, [r5, #112]	; 0x70
100029b6:	605c      	str	r4, [r3, #4]
100029b8:	42a7      	cmp	r7, r4
100029ba:	d90b      	bls.n	100029d4 <vTaskDelay+0x3c>
100029bc:	68b0      	ldr	r0, [r6, #8]
100029be:	6f29      	ldr	r1, [r5, #112]	; 0x70
100029c0:	3104      	adds	r1, #4
100029c2:	f001 f9b9 	bl	10003d38 <vListInsert>
100029c6:	f7ff ff07 	bl	100027d8 <xTaskResumeAll>
100029ca:	2800      	cmp	r0, #0
100029cc:	d101      	bne.n	100029d2 <vTaskDelay+0x3a>
100029ce:	f000 ffbd 	bl	1000394c <vPortYield>
100029d2:	bdf8      	pop	{r3, r4, r5, r6, r7, pc}
100029d4:	68f0      	ldr	r0, [r6, #12]
100029d6:	6f29      	ldr	r1, [r5, #112]	; 0x70
100029d8:	3104      	adds	r1, #4
100029da:	f001 f9ad 	bl	10003d38 <vListInsert>
100029de:	6933      	ldr	r3, [r6, #16]
100029e0:	429c      	cmp	r4, r3
100029e2:	d2f0      	bcs.n	100029c6 <vTaskDelay+0x2e>
100029e4:	6134      	str	r4, [r6, #16]
100029e6:	e7ee      	b.n	100029c6 <vTaskDelay+0x2e>
100029e8:	200003e4 	.word	0x200003e4
100029ec:	20000364 	.word	0x20000364

100029f0 <xTaskGetTickCount>:
100029f0:	4b01      	ldr	r3, [pc, #4]	; (100029f8 <xTaskGetTickCount+0x8>)
100029f2:	6ed8      	ldr	r0, [r3, #108]	; 0x6c
100029f4:	4770      	bx	lr
100029f6:	46c0      	nop			; (mov r8, r8)
100029f8:	20000364 	.word	0x20000364

100029fc <xTaskGetTickCountFromISR>:
100029fc:	4b01      	ldr	r3, [pc, #4]	; (10002a04 <xTaskGetTickCountFromISR+0x8>)
100029fe:	6ed8      	ldr	r0, [r3, #108]	; 0x6c
10002a00:	4770      	bx	lr
10002a02:	46c0      	nop			; (mov r8, r8)
10002a04:	20000364 	.word	0x20000364

10002a08 <uxTaskGetNumberOfTasks>:
10002a08:	4b01      	ldr	r3, [pc, #4]	; (10002a10 <uxTaskGetNumberOfTasks+0x8>)
10002a0a:	6998      	ldr	r0, [r3, #24]
10002a0c:	4770      	bx	lr
10002a0e:	46c0      	nop			; (mov r8, r8)
10002a10:	20000364 	.word	0x20000364

10002a14 <pcTaskGetName>:
10002a14:	2800      	cmp	r0, #0
10002a16:	d001      	beq.n	10002a1c <pcTaskGetName+0x8>
10002a18:	3034      	adds	r0, #52	; 0x34
10002a1a:	4770      	bx	lr
10002a1c:	4b01      	ldr	r3, [pc, #4]	; (10002a24 <pcTaskGetName+0x10>)
10002a1e:	6f18      	ldr	r0, [r3, #112]	; 0x70
10002a20:	e7fa      	b.n	10002a18 <pcTaskGetName+0x4>
10002a22:	46c0      	nop			; (mov r8, r8)
10002a24:	20000364 	.word	0x20000364

10002a28 <xTaskCatchUpTicks>:
10002a28:	b570      	push	{r4, r5, r6, lr}
10002a2a:	4c07      	ldr	r4, [pc, #28]	; (10002a48 <xTaskCatchUpTicks+0x20>)
10002a2c:	0005      	movs	r5, r0
10002a2e:	6e63      	ldr	r3, [r4, #100]	; 0x64
10002a30:	3301      	adds	r3, #1
10002a32:	6663      	str	r3, [r4, #100]	; 0x64
10002a34:	f000 ff96 	bl	10003964 <vPortEnterCritical>
10002a38:	6ee0      	ldr	r0, [r4, #108]	; 0x6c
10002a3a:	1940      	adds	r0, r0, r5
10002a3c:	66e0      	str	r0, [r4, #108]	; 0x6c
10002a3e:	f000 ff9d 	bl	1000397c <vPortExitCritical>
10002a42:	f7ff fec9 	bl	100027d8 <xTaskResumeAll>
10002a46:	bd70      	pop	{r4, r5, r6, pc}
10002a48:	200003e4 	.word	0x200003e4

10002a4c <xTaskIncrementTick>:
10002a4c:	4b06      	ldr	r3, [pc, #24]	; (10002a68 <xTaskIncrementTick+0x1c>)
10002a4e:	b510      	push	{r4, lr}
10002a50:	6e5a      	ldr	r2, [r3, #100]	; 0x64
10002a52:	2a00      	cmp	r2, #0
10002a54:	d102      	bne.n	10002a5c <xTaskIncrementTick+0x10>
10002a56:	f7ff fa45 	bl	10001ee4 <xTaskIncrementTick.part.0>
10002a5a:	bd10      	pop	{r4, pc}
10002a5c:	6eda      	ldr	r2, [r3, #108]	; 0x6c
10002a5e:	2000      	movs	r0, #0
10002a60:	3201      	adds	r2, #1
10002a62:	66da      	str	r2, [r3, #108]	; 0x6c
10002a64:	e7f9      	b.n	10002a5a <xTaskIncrementTick+0xe>
10002a66:	46c0      	nop			; (mov r8, r8)
10002a68:	200003e4 	.word	0x200003e4

10002a6c <vTaskSwitchContext>:
10002a6c:	4921      	ldr	r1, [pc, #132]	; (10002af4 <vTaskSwitchContext+0x88>)
10002a6e:	b530      	push	{r4, r5, lr}
10002a70:	6e4b      	ldr	r3, [r1, #100]	; 0x64
10002a72:	2b00      	cmp	r3, #0
10002a74:	d002      	beq.n	10002a7c <vTaskSwitchContext+0x10>
10002a76:	2301      	movs	r3, #1
10002a78:	61cb      	str	r3, [r1, #28]
10002a7a:	bd30      	pop	{r4, r5, pc}
10002a7c:	61cb      	str	r3, [r1, #28]
10002a7e:	698a      	ldr	r2, [r1, #24]
10002a80:	481d      	ldr	r0, [pc, #116]	; (10002af8 <vTaskSwitchContext+0x8c>)
10002a82:	0093      	lsls	r3, r2, #2
10002a84:	189c      	adds	r4, r3, r2
10002a86:	00a4      	lsls	r4, r4, #2
10002a88:	1904      	adds	r4, r0, r4
10002a8a:	69e4      	ldr	r4, [r4, #28]
10002a8c:	2c00      	cmp	r4, #0
10002a8e:	d11f      	bne.n	10002ad0 <vTaskSwitchContext+0x64>
10002a90:	1e55      	subs	r5, r2, #1
10002a92:	00ab      	lsls	r3, r5, #2
10002a94:	195c      	adds	r4, r3, r5
10002a96:	00a4      	lsls	r4, r4, #2
10002a98:	1904      	adds	r4, r0, r4
10002a9a:	69e4      	ldr	r4, [r4, #28]
10002a9c:	2c00      	cmp	r4, #0
10002a9e:	d116      	bne.n	10002ace <vTaskSwitchContext+0x62>
10002aa0:	1e95      	subs	r5, r2, #2
10002aa2:	00ab      	lsls	r3, r5, #2
10002aa4:	195c      	adds	r4, r3, r5
10002aa6:	00a4      	lsls	r4, r4, #2
10002aa8:	1904      	adds	r4, r0, r4
10002aaa:	69e4      	ldr	r4, [r4, #28]
10002aac:	2c00      	cmp	r4, #0
10002aae:	d10e      	bne.n	10002ace <vTaskSwitchContext+0x62>
10002ab0:	1ed5      	subs	r5, r2, #3
10002ab2:	00ab      	lsls	r3, r5, #2
10002ab4:	195c      	adds	r4, r3, r5
10002ab6:	00a4      	lsls	r4, r4, #2
10002ab8:	1904      	adds	r4, r0, r4
10002aba:	69e4      	ldr	r4, [r4, #28]
10002abc:	2c00      	cmp	r4, #0
10002abe:	d106      	bne.n	10002ace <vTaskSwitchContext+0x62>
10002ac0:	3a04      	subs	r2, #4
10002ac2:	0093      	lsls	r3, r2, #2
10002ac4:	189c      	adds	r4, r3, r2
10002ac6:	00a4      	lsls	r4, r4, #2
10002ac8:	1904      	adds	r4, r0, r4
10002aca:	69e4      	ldr	r4, [r4, #28]
10002acc:	e000      	b.n	10002ad0 <vTaskSwitchContext+0x64>
10002ace:	002a      	movs	r2, r5
10002ad0:	189b      	adds	r3, r3, r2
10002ad2:	009b      	lsls	r3, r3, #2
10002ad4:	18c5      	adds	r5, r0, r3
10002ad6:	002b      	movs	r3, r5
10002ad8:	6a2c      	ldr	r4, [r5, #32]
10002ada:	3324      	adds	r3, #36	; 0x24
10002adc:	6864      	ldr	r4, [r4, #4]
10002ade:	622c      	str	r4, [r5, #32]
10002ae0:	429c      	cmp	r4, r3
10002ae2:	d003      	beq.n	10002aec <vTaskSwitchContext+0x80>
10002ae4:	68e3      	ldr	r3, [r4, #12]
10002ae6:	6703      	str	r3, [r0, #112]	; 0x70
10002ae8:	618a      	str	r2, [r1, #24]
10002aea:	e7c6      	b.n	10002a7a <vTaskSwitchContext+0xe>
10002aec:	6864      	ldr	r4, [r4, #4]
10002aee:	622c      	str	r4, [r5, #32]
10002af0:	e7f8      	b.n	10002ae4 <vTaskSwitchContext+0x78>
10002af2:	46c0      	nop			; (mov r8, r8)
10002af4:	200003e4 	.word	0x200003e4
10002af8:	20000364 	.word	0x20000364

10002afc <vTaskPlaceOnEventList>:
10002afc:	b570      	push	{r4, r5, r6, lr}
10002afe:	000d      	movs	r5, r1
10002b00:	4c1b      	ldr	r4, [pc, #108]	; (10002b70 <vTaskPlaceOnEventList+0x74>)
10002b02:	6f21      	ldr	r1, [r4, #112]	; 0x70
10002b04:	3118      	adds	r1, #24
10002b06:	f001 f917 	bl	10003d38 <vListInsert>
10002b0a:	6ee6      	ldr	r6, [r4, #108]	; 0x6c
10002b0c:	6f20      	ldr	r0, [r4, #112]	; 0x70
10002b0e:	3004      	adds	r0, #4
10002b10:	f001 f92a 	bl	10003d68 <uxListRemove>
10002b14:	1c6b      	adds	r3, r5, #1
10002b16:	d016      	beq.n	10002b46 <vTaskPlaceOnEventList+0x4a>
10002b18:	6f23      	ldr	r3, [r4, #112]	; 0x70
10002b1a:	19ad      	adds	r5, r5, r6
10002b1c:	605d      	str	r5, [r3, #4]
10002b1e:	42ae      	cmp	r6, r5
10002b20:	d906      	bls.n	10002b30 <vTaskPlaceOnEventList+0x34>
10002b22:	4b14      	ldr	r3, [pc, #80]	; (10002b74 <vTaskPlaceOnEventList+0x78>)
10002b24:	6898      	ldr	r0, [r3, #8]
10002b26:	6f21      	ldr	r1, [r4, #112]	; 0x70
10002b28:	3104      	adds	r1, #4
10002b2a:	f001 f905 	bl	10003d38 <vListInsert>
10002b2e:	bd70      	pop	{r4, r5, r6, pc}
10002b30:	4e10      	ldr	r6, [pc, #64]	; (10002b74 <vTaskPlaceOnEventList+0x78>)
10002b32:	68f0      	ldr	r0, [r6, #12]
10002b34:	6f21      	ldr	r1, [r4, #112]	; 0x70
10002b36:	3104      	adds	r1, #4
10002b38:	f001 f8fe 	bl	10003d38 <vListInsert>
10002b3c:	6933      	ldr	r3, [r6, #16]
10002b3e:	429d      	cmp	r5, r3
10002b40:	d2f5      	bcs.n	10002b2e <vTaskPlaceOnEventList+0x32>
10002b42:	6135      	str	r5, [r6, #16]
10002b44:	e7f3      	b.n	10002b2e <vTaskPlaceOnEventList+0x32>
10002b46:	6f22      	ldr	r2, [r4, #112]	; 0x70
10002b48:	6fa3      	ldr	r3, [r4, #120]	; 0x78
10002b4a:	6899      	ldr	r1, [r3, #8]
10002b4c:	6093      	str	r3, [r2, #8]
10002b4e:	6f22      	ldr	r2, [r4, #112]	; 0x70
10002b50:	60d1      	str	r1, [r2, #12]
10002b52:	6f22      	ldr	r2, [r4, #112]	; 0x70
10002b54:	6899      	ldr	r1, [r3, #8]
10002b56:	3204      	adds	r2, #4
10002b58:	604a      	str	r2, [r1, #4]
10002b5a:	6f22      	ldr	r2, [r4, #112]	; 0x70
10002b5c:	3204      	adds	r2, #4
10002b5e:	609a      	str	r2, [r3, #8]
10002b60:	0022      	movs	r2, r4
10002b62:	6f23      	ldr	r3, [r4, #112]	; 0x70
10002b64:	3274      	adds	r2, #116	; 0x74
10002b66:	615a      	str	r2, [r3, #20]
10002b68:	6f63      	ldr	r3, [r4, #116]	; 0x74
10002b6a:	3301      	adds	r3, #1
10002b6c:	6763      	str	r3, [r4, #116]	; 0x74
10002b6e:	e7de      	b.n	10002b2e <vTaskPlaceOnEventList+0x32>
10002b70:	20000364 	.word	0x20000364
10002b74:	200003e4 	.word	0x200003e4

10002b78 <vTaskPlaceOnUnorderedEventList>:
10002b78:	2380      	movs	r3, #128	; 0x80
10002b7a:	b570      	push	{r4, r5, r6, lr}
10002b7c:	0015      	movs	r5, r2
10002b7e:	4c25      	ldr	r4, [pc, #148]	; (10002c14 <vTaskPlaceOnUnorderedEventList+0x9c>)
10002b80:	061b      	lsls	r3, r3, #24
10002b82:	6f22      	ldr	r2, [r4, #112]	; 0x70
10002b84:	430b      	orrs	r3, r1
10002b86:	6193      	str	r3, [r2, #24]
10002b88:	6843      	ldr	r3, [r0, #4]
10002b8a:	6f22      	ldr	r2, [r4, #112]	; 0x70
10002b8c:	6899      	ldr	r1, [r3, #8]
10002b8e:	61d3      	str	r3, [r2, #28]
10002b90:	6f22      	ldr	r2, [r4, #112]	; 0x70
10002b92:	6211      	str	r1, [r2, #32]
10002b94:	6f22      	ldr	r2, [r4, #112]	; 0x70
10002b96:	6899      	ldr	r1, [r3, #8]
10002b98:	3218      	adds	r2, #24
10002b9a:	604a      	str	r2, [r1, #4]
10002b9c:	6f22      	ldr	r2, [r4, #112]	; 0x70
10002b9e:	3218      	adds	r2, #24
10002ba0:	609a      	str	r2, [r3, #8]
10002ba2:	6f23      	ldr	r3, [r4, #112]	; 0x70
10002ba4:	6298      	str	r0, [r3, #40]	; 0x28
10002ba6:	6803      	ldr	r3, [r0, #0]
10002ba8:	3301      	adds	r3, #1
10002baa:	6003      	str	r3, [r0, #0]
10002bac:	6ee6      	ldr	r6, [r4, #108]	; 0x6c
10002bae:	6f20      	ldr	r0, [r4, #112]	; 0x70
10002bb0:	3004      	adds	r0, #4
10002bb2:	f001 f8d9 	bl	10003d68 <uxListRemove>
10002bb6:	1c6b      	adds	r3, r5, #1
10002bb8:	d016      	beq.n	10002be8 <vTaskPlaceOnUnorderedEventList+0x70>
10002bba:	6f23      	ldr	r3, [r4, #112]	; 0x70
10002bbc:	19ad      	adds	r5, r5, r6
10002bbe:	605d      	str	r5, [r3, #4]
10002bc0:	42ae      	cmp	r6, r5
10002bc2:	d906      	bls.n	10002bd2 <vTaskPlaceOnUnorderedEventList+0x5a>
10002bc4:	4b14      	ldr	r3, [pc, #80]	; (10002c18 <vTaskPlaceOnUnorderedEventList+0xa0>)
10002bc6:	6898      	ldr	r0, [r3, #8]
10002bc8:	6f21      	ldr	r1, [r4, #112]	; 0x70
10002bca:	3104      	adds	r1, #4
10002bcc:	f001 f8b4 	bl	10003d38 <vListInsert>
10002bd0:	bd70      	pop	{r4, r5, r6, pc}
10002bd2:	4e11      	ldr	r6, [pc, #68]	; (10002c18 <vTaskPlaceOnUnorderedEventList+0xa0>)
10002bd4:	68f0      	ldr	r0, [r6, #12]
10002bd6:	6f21      	ldr	r1, [r4, #112]	; 0x70
10002bd8:	3104      	adds	r1, #4
10002bda:	f001 f8ad 	bl	10003d38 <vListInsert>
10002bde:	6933      	ldr	r3, [r6, #16]
10002be0:	429d      	cmp	r5, r3
10002be2:	d2f5      	bcs.n	10002bd0 <vTaskPlaceOnUnorderedEventList+0x58>
10002be4:	6135      	str	r5, [r6, #16]
10002be6:	e7f3      	b.n	10002bd0 <vTaskPlaceOnUnorderedEventList+0x58>
10002be8:	6f22      	ldr	r2, [r4, #112]	; 0x70
10002bea:	6fa3      	ldr	r3, [r4, #120]	; 0x78
10002bec:	6899      	ldr	r1, [r3, #8]
10002bee:	6093      	str	r3, [r2, #8]
10002bf0:	6f22      	ldr	r2, [r4, #112]	; 0x70
10002bf2:	60d1      	str	r1, [r2, #12]
10002bf4:	6f22      	ldr	r2, [r4, #112]	; 0x70
10002bf6:	6899      	ldr	r1, [r3, #8]
10002bf8:	3204      	adds	r2, #4
10002bfa:	604a      	str	r2, [r1, #4]
10002bfc:	6f22      	ldr	r2, [r4, #112]	; 0x70
10002bfe:	3204      	adds	r2, #4
10002c00:	609a      	str	r2, [r3, #8]
10002c02:	0022      	movs	r2, r4
10002c04:	6f23      	ldr	r3, [r4, #112]	; 0x70
10002c06:	3274      	adds	r2, #116	; 0x74
10002c08:	615a      	str	r2, [r3, #20]
10002c0a:	6f63      	ldr	r3, [r4, #116]	; 0x74
10002c0c:	3301      	adds	r3, #1
10002c0e:	6763      	str	r3, [r4, #116]	; 0x74
10002c10:	e7de      	b.n	10002bd0 <vTaskPlaceOnUnorderedEventList+0x58>
10002c12:	46c0      	nop			; (mov r8, r8)
10002c14:	20000364 	.word	0x20000364
10002c18:	200003e4 	.word	0x200003e4

10002c1c <vTaskPlaceOnEventListRestricted>:
10002c1c:	b570      	push	{r4, r5, r6, lr}
10002c1e:	4c26      	ldr	r4, [pc, #152]	; (10002cb8 <vTaskPlaceOnEventListRestricted+0x9c>)
10002c20:	6843      	ldr	r3, [r0, #4]
10002c22:	000d      	movs	r5, r1
10002c24:	6f21      	ldr	r1, [r4, #112]	; 0x70
10002c26:	689e      	ldr	r6, [r3, #8]
10002c28:	61cb      	str	r3, [r1, #28]
10002c2a:	6f21      	ldr	r1, [r4, #112]	; 0x70
10002c2c:	620e      	str	r6, [r1, #32]
10002c2e:	6f21      	ldr	r1, [r4, #112]	; 0x70
10002c30:	689e      	ldr	r6, [r3, #8]
10002c32:	3118      	adds	r1, #24
10002c34:	6071      	str	r1, [r6, #4]
10002c36:	6f21      	ldr	r1, [r4, #112]	; 0x70
10002c38:	3118      	adds	r1, #24
10002c3a:	6099      	str	r1, [r3, #8]
10002c3c:	6f23      	ldr	r3, [r4, #112]	; 0x70
10002c3e:	6298      	str	r0, [r3, #40]	; 0x28
10002c40:	6803      	ldr	r3, [r0, #0]
10002c42:	3301      	adds	r3, #1
10002c44:	6003      	str	r3, [r0, #0]
10002c46:	2a00      	cmp	r2, #0
10002c48:	d019      	beq.n	10002c7e <vTaskPlaceOnEventListRestricted+0x62>
10002c4a:	6ee3      	ldr	r3, [r4, #108]	; 0x6c
10002c4c:	6f20      	ldr	r0, [r4, #112]	; 0x70
10002c4e:	3004      	adds	r0, #4
10002c50:	f001 f88a 	bl	10003d68 <uxListRemove>
10002c54:	6f22      	ldr	r2, [r4, #112]	; 0x70
10002c56:	6fa3      	ldr	r3, [r4, #120]	; 0x78
10002c58:	6899      	ldr	r1, [r3, #8]
10002c5a:	6093      	str	r3, [r2, #8]
10002c5c:	6f22      	ldr	r2, [r4, #112]	; 0x70
10002c5e:	60d1      	str	r1, [r2, #12]
10002c60:	6f22      	ldr	r2, [r4, #112]	; 0x70
10002c62:	6899      	ldr	r1, [r3, #8]
10002c64:	3204      	adds	r2, #4
10002c66:	604a      	str	r2, [r1, #4]
10002c68:	6f22      	ldr	r2, [r4, #112]	; 0x70
10002c6a:	3204      	adds	r2, #4
10002c6c:	609a      	str	r2, [r3, #8]
10002c6e:	0022      	movs	r2, r4
10002c70:	6f23      	ldr	r3, [r4, #112]	; 0x70
10002c72:	3274      	adds	r2, #116	; 0x74
10002c74:	615a      	str	r2, [r3, #20]
10002c76:	6f63      	ldr	r3, [r4, #116]	; 0x74
10002c78:	3301      	adds	r3, #1
10002c7a:	6763      	str	r3, [r4, #116]	; 0x74
10002c7c:	bd70      	pop	{r4, r5, r6, pc}
10002c7e:	6ee6      	ldr	r6, [r4, #108]	; 0x6c
10002c80:	6f20      	ldr	r0, [r4, #112]	; 0x70
10002c82:	19ad      	adds	r5, r5, r6
10002c84:	3004      	adds	r0, #4
10002c86:	f001 f86f 	bl	10003d68 <uxListRemove>
10002c8a:	6f23      	ldr	r3, [r4, #112]	; 0x70
10002c8c:	605d      	str	r5, [r3, #4]
10002c8e:	42ae      	cmp	r6, r5
10002c90:	d80a      	bhi.n	10002ca8 <vTaskPlaceOnEventListRestricted+0x8c>
10002c92:	4e0a      	ldr	r6, [pc, #40]	; (10002cbc <vTaskPlaceOnEventListRestricted+0xa0>)
10002c94:	68f0      	ldr	r0, [r6, #12]
10002c96:	6f21      	ldr	r1, [r4, #112]	; 0x70
10002c98:	3104      	adds	r1, #4
10002c9a:	f001 f84d 	bl	10003d38 <vListInsert>
10002c9e:	6933      	ldr	r3, [r6, #16]
10002ca0:	429d      	cmp	r5, r3
10002ca2:	d2eb      	bcs.n	10002c7c <vTaskPlaceOnEventListRestricted+0x60>
10002ca4:	6135      	str	r5, [r6, #16]
10002ca6:	e7e9      	b.n	10002c7c <vTaskPlaceOnEventListRestricted+0x60>
10002ca8:	4b04      	ldr	r3, [pc, #16]	; (10002cbc <vTaskPlaceOnEventListRestricted+0xa0>)
10002caa:	6898      	ldr	r0, [r3, #8]
10002cac:	6f21      	ldr	r1, [r4, #112]	; 0x70
10002cae:	3104      	adds	r1, #4
10002cb0:	f001 f842 	bl	10003d38 <vListInsert>
10002cb4:	e7e2      	b.n	10002c7c <vTaskPlaceOnEventListRestricted+0x60>
10002cb6:	46c0      	nop			; (mov r8, r8)
10002cb8:	20000364 	.word	0x20000364
10002cbc:	200003e4 	.word	0x200003e4

10002cc0 <xTaskRemoveFromEventList>:
10002cc0:	68c3      	ldr	r3, [r0, #12]
10002cc2:	b5f0      	push	{r4, r5, r6, r7, lr}
10002cc4:	68db      	ldr	r3, [r3, #12]
10002cc6:	69d8      	ldr	r0, [r3, #28]
10002cc8:	6a19      	ldr	r1, [r3, #32]
10002cca:	6a9a      	ldr	r2, [r3, #40]	; 0x28
10002ccc:	6081      	str	r1, [r0, #8]
10002cce:	6048      	str	r0, [r1, #4]
10002cd0:	0018      	movs	r0, r3
10002cd2:	6854      	ldr	r4, [r2, #4]
10002cd4:	3018      	adds	r0, #24
10002cd6:	4284      	cmp	r4, r0
10002cd8:	d049      	beq.n	10002d6e <xTaskRemoveFromEventList+0xae>
10002cda:	2100      	movs	r1, #0
10002cdc:	6299      	str	r1, [r3, #40]	; 0x28
10002cde:	6811      	ldr	r1, [r2, #0]
10002ce0:	3901      	subs	r1, #1
10002ce2:	6011      	str	r1, [r2, #0]
10002ce4:	4a27      	ldr	r2, [pc, #156]	; (10002d84 <xTaskRemoveFromEventList+0xc4>)
10002ce6:	6e51      	ldr	r1, [r2, #100]	; 0x64
10002ce8:	2900      	cmp	r1, #0
10002cea:	d12e      	bne.n	10002d4a <xTaskRemoveFromEventList+0x8a>
10002cec:	6898      	ldr	r0, [r3, #8]
10002cee:	68dc      	ldr	r4, [r3, #12]
10002cf0:	6959      	ldr	r1, [r3, #20]
10002cf2:	6084      	str	r4, [r0, #8]
10002cf4:	68dc      	ldr	r4, [r3, #12]
10002cf6:	1d1f      	adds	r7, r3, #4
10002cf8:	6060      	str	r0, [r4, #4]
10002cfa:	6848      	ldr	r0, [r1, #4]
10002cfc:	42b8      	cmp	r0, r7
10002cfe:	d038      	beq.n	10002d72 <xTaskRemoveFromEventList+0xb2>
10002d00:	6808      	ldr	r0, [r1, #0]
10002d02:	3801      	subs	r0, #1
10002d04:	6008      	str	r0, [r1, #0]
10002d06:	6990      	ldr	r0, [r2, #24]
10002d08:	6ad9      	ldr	r1, [r3, #44]	; 0x2c
10002d0a:	4281      	cmp	r1, r0
10002d0c:	d82d      	bhi.n	10002d6a <xTaskRemoveFromEventList+0xaa>
10002d0e:	0088      	lsls	r0, r1, #2
10002d10:	4c1d      	ldr	r4, [pc, #116]	; (10002d88 <xTaskRemoveFromEventList+0xc8>)
10002d12:	1840      	adds	r0, r0, r1
10002d14:	0080      	lsls	r0, r0, #2
10002d16:	1826      	adds	r6, r4, r0
10002d18:	6a35      	ldr	r5, [r6, #32]
10002d1a:	4684      	mov	ip, r0
10002d1c:	68a8      	ldr	r0, [r5, #8]
10002d1e:	609d      	str	r5, [r3, #8]
10002d20:	60d8      	str	r0, [r3, #12]
10002d22:	68a8      	ldr	r0, [r5, #8]
10002d24:	6047      	str	r7, [r0, #4]
10002d26:	60af      	str	r7, [r5, #8]
10002d28:	0025      	movs	r5, r4
10002d2a:	351c      	adds	r5, #28
10002d2c:	0028      	movs	r0, r5
10002d2e:	4460      	add	r0, ip
10002d30:	6158      	str	r0, [r3, #20]
10002d32:	69f3      	ldr	r3, [r6, #28]
10002d34:	3301      	adds	r3, #1
10002d36:	61f3      	str	r3, [r6, #28]
10002d38:	6f23      	ldr	r3, [r4, #112]	; 0x70
10002d3a:	2000      	movs	r0, #0
10002d3c:	6adb      	ldr	r3, [r3, #44]	; 0x2c
10002d3e:	428b      	cmp	r3, r1
10002d40:	d202      	bcs.n	10002d48 <xTaskRemoveFromEventList+0x88>
10002d42:	2301      	movs	r3, #1
10002d44:	3001      	adds	r0, #1
10002d46:	61d3      	str	r3, [r2, #28]
10002d48:	bdf0      	pop	{r4, r5, r6, r7, pc}
10002d4a:	6cd1      	ldr	r1, [r2, #76]	; 0x4c
10002d4c:	688c      	ldr	r4, [r1, #8]
10002d4e:	61d9      	str	r1, [r3, #28]
10002d50:	621c      	str	r4, [r3, #32]
10002d52:	688c      	ldr	r4, [r1, #8]
10002d54:	6060      	str	r0, [r4, #4]
10002d56:	6088      	str	r0, [r1, #8]
10002d58:	0011      	movs	r1, r2
10002d5a:	3148      	adds	r1, #72	; 0x48
10002d5c:	6299      	str	r1, [r3, #40]	; 0x28
10002d5e:	6c91      	ldr	r1, [r2, #72]	; 0x48
10002d60:	4c09      	ldr	r4, [pc, #36]	; (10002d88 <xTaskRemoveFromEventList+0xc8>)
10002d62:	3101      	adds	r1, #1
10002d64:	6491      	str	r1, [r2, #72]	; 0x48
10002d66:	6ad9      	ldr	r1, [r3, #44]	; 0x2c
10002d68:	e7e6      	b.n	10002d38 <xTaskRemoveFromEventList+0x78>
10002d6a:	6191      	str	r1, [r2, #24]
10002d6c:	e7cf      	b.n	10002d0e <xTaskRemoveFromEventList+0x4e>
10002d6e:	6051      	str	r1, [r2, #4]
10002d70:	e7b3      	b.n	10002cda <xTaskRemoveFromEventList+0x1a>
10002d72:	6808      	ldr	r0, [r1, #0]
10002d74:	604c      	str	r4, [r1, #4]
10002d76:	3801      	subs	r0, #1
10002d78:	6008      	str	r0, [r1, #0]
10002d7a:	6990      	ldr	r0, [r2, #24]
10002d7c:	6ad9      	ldr	r1, [r3, #44]	; 0x2c
10002d7e:	4281      	cmp	r1, r0
10002d80:	d9c5      	bls.n	10002d0e <xTaskRemoveFromEventList+0x4e>
10002d82:	e7f2      	b.n	10002d6a <xTaskRemoveFromEventList+0xaa>
10002d84:	200003e4 	.word	0x200003e4
10002d88:	20000364 	.word	0x20000364

10002d8c <vTaskRemoveFromUnorderedEventList>:
10002d8c:	2380      	movs	r3, #128	; 0x80
10002d8e:	061b      	lsls	r3, r3, #24
10002d90:	b5f0      	push	{r4, r5, r6, r7, lr}
10002d92:	430b      	orrs	r3, r1
10002d94:	6884      	ldr	r4, [r0, #8]
10002d96:	6841      	ldr	r1, [r0, #4]
10002d98:	6902      	ldr	r2, [r0, #16]
10002d9a:	6003      	str	r3, [r0, #0]
10002d9c:	68c3      	ldr	r3, [r0, #12]
10002d9e:	608c      	str	r4, [r1, #8]
10002da0:	6884      	ldr	r4, [r0, #8]
10002da2:	6061      	str	r1, [r4, #4]
10002da4:	6851      	ldr	r1, [r2, #4]
10002da6:	4281      	cmp	r1, r0
10002da8:	d034      	beq.n	10002e14 <vTaskRemoveFromUnorderedEventList+0x88>
10002daa:	2100      	movs	r1, #0
10002dac:	6101      	str	r1, [r0, #16]
10002dae:	6811      	ldr	r1, [r2, #0]
10002db0:	68d8      	ldr	r0, [r3, #12]
10002db2:	3901      	subs	r1, #1
10002db4:	6011      	str	r1, [r2, #0]
10002db6:	6899      	ldr	r1, [r3, #8]
10002db8:	695a      	ldr	r2, [r3, #20]
10002dba:	6088      	str	r0, [r1, #8]
10002dbc:	68d8      	ldr	r0, [r3, #12]
10002dbe:	1d1f      	adds	r7, r3, #4
10002dc0:	6041      	str	r1, [r0, #4]
10002dc2:	6851      	ldr	r1, [r2, #4]
10002dc4:	42b9      	cmp	r1, r7
10002dc6:	d027      	beq.n	10002e18 <vTaskRemoveFromUnorderedEventList+0x8c>
10002dc8:	6811      	ldr	r1, [r2, #0]
10002dca:	3901      	subs	r1, #1
10002dcc:	6011      	str	r1, [r2, #0]
10002dce:	4a13      	ldr	r2, [pc, #76]	; (10002e1c <vTaskRemoveFromUnorderedEventList+0x90>)
10002dd0:	6ad9      	ldr	r1, [r3, #44]	; 0x2c
10002dd2:	4694      	mov	ip, r2
10002dd4:	6992      	ldr	r2, [r2, #24]
10002dd6:	4291      	cmp	r1, r2
10002dd8:	d901      	bls.n	10002dde <vTaskRemoveFromUnorderedEventList+0x52>
10002dda:	4662      	mov	r2, ip
10002ddc:	6191      	str	r1, [r2, #24]
10002dde:	008a      	lsls	r2, r1, #2
10002de0:	4c0f      	ldr	r4, [pc, #60]	; (10002e20 <vTaskRemoveFromUnorderedEventList+0x94>)
10002de2:	1852      	adds	r2, r2, r1
10002de4:	0092      	lsls	r2, r2, #2
10002de6:	18a5      	adds	r5, r4, r2
10002de8:	6a28      	ldr	r0, [r5, #32]
10002dea:	6886      	ldr	r6, [r0, #8]
10002dec:	6098      	str	r0, [r3, #8]
10002dee:	60de      	str	r6, [r3, #12]
10002df0:	6886      	ldr	r6, [r0, #8]
10002df2:	6077      	str	r7, [r6, #4]
10002df4:	6087      	str	r7, [r0, #8]
10002df6:	0020      	movs	r0, r4
10002df8:	301c      	adds	r0, #28
10002dfa:	1882      	adds	r2, r0, r2
10002dfc:	615a      	str	r2, [r3, #20]
10002dfe:	69eb      	ldr	r3, [r5, #28]
10002e00:	3301      	adds	r3, #1
10002e02:	61eb      	str	r3, [r5, #28]
10002e04:	6f23      	ldr	r3, [r4, #112]	; 0x70
10002e06:	6adb      	ldr	r3, [r3, #44]	; 0x2c
10002e08:	4299      	cmp	r1, r3
10002e0a:	d902      	bls.n	10002e12 <vTaskRemoveFromUnorderedEventList+0x86>
10002e0c:	2301      	movs	r3, #1
10002e0e:	4662      	mov	r2, ip
10002e10:	61d3      	str	r3, [r2, #28]
10002e12:	bdf0      	pop	{r4, r5, r6, r7, pc}
10002e14:	6054      	str	r4, [r2, #4]
10002e16:	e7c8      	b.n	10002daa <vTaskRemoveFromUnorderedEventList+0x1e>
10002e18:	6050      	str	r0, [r2, #4]
10002e1a:	e7d5      	b.n	10002dc8 <vTaskRemoveFromUnorderedEventList+0x3c>
10002e1c:	200003e4 	.word	0x200003e4
10002e20:	20000364 	.word	0x20000364

10002e24 <vTaskSetTimeOutState>:
10002e24:	b510      	push	{r4, lr}
10002e26:	0004      	movs	r4, r0
10002e28:	f000 fd9c 	bl	10003964 <vPortEnterCritical>
10002e2c:	4b04      	ldr	r3, [pc, #16]	; (10002e40 <vTaskSetTimeOutState+0x1c>)
10002e2e:	695b      	ldr	r3, [r3, #20]
10002e30:	6023      	str	r3, [r4, #0]
10002e32:	4b04      	ldr	r3, [pc, #16]	; (10002e44 <vTaskSetTimeOutState+0x20>)
10002e34:	6edb      	ldr	r3, [r3, #108]	; 0x6c
10002e36:	6063      	str	r3, [r4, #4]
10002e38:	f000 fda0 	bl	1000397c <vPortExitCritical>
10002e3c:	bd10      	pop	{r4, pc}
10002e3e:	46c0      	nop			; (mov r8, r8)
10002e40:	200003e4 	.word	0x200003e4
10002e44:	20000364 	.word	0x20000364

10002e48 <vTaskInternalSetTimeOutState>:
10002e48:	4b03      	ldr	r3, [pc, #12]	; (10002e58 <vTaskInternalSetTimeOutState+0x10>)
10002e4a:	695b      	ldr	r3, [r3, #20]
10002e4c:	6003      	str	r3, [r0, #0]
10002e4e:	4b03      	ldr	r3, [pc, #12]	; (10002e5c <vTaskInternalSetTimeOutState+0x14>)
10002e50:	6edb      	ldr	r3, [r3, #108]	; 0x6c
10002e52:	6043      	str	r3, [r0, #4]
10002e54:	4770      	bx	lr
10002e56:	46c0      	nop			; (mov r8, r8)
10002e58:	200003e4 	.word	0x200003e4
10002e5c:	20000364 	.word	0x20000364

10002e60 <xTaskCheckForTimeOut>:
10002e60:	b5f8      	push	{r3, r4, r5, r6, r7, lr}
10002e62:	000d      	movs	r5, r1
10002e64:	0004      	movs	r4, r0
10002e66:	f000 fd7d 	bl	10003964 <vPortEnterCritical>
10002e6a:	4a12      	ldr	r2, [pc, #72]	; (10002eb4 <xTaskCheckForTimeOut+0x54>)
10002e6c:	682b      	ldr	r3, [r5, #0]
10002e6e:	6ed1      	ldr	r1, [r2, #108]	; 0x6c
10002e70:	1c58      	adds	r0, r3, #1
10002e72:	d01c      	beq.n	10002eae <xTaskCheckForTimeOut+0x4e>
10002e74:	4e10      	ldr	r6, [pc, #64]	; (10002eb8 <xTaskCheckForTimeOut+0x58>)
10002e76:	6860      	ldr	r0, [r4, #4]
10002e78:	46b4      	mov	ip, r6
10002e7a:	6977      	ldr	r7, [r6, #20]
10002e7c:	6826      	ldr	r6, [r4, #0]
10002e7e:	42be      	cmp	r6, r7
10002e80:	d008      	beq.n	10002e94 <xTaskCheckForTimeOut+0x34>
10002e82:	4288      	cmp	r0, r1
10002e84:	d806      	bhi.n	10002e94 <xTaskCheckForTimeOut+0x34>
10002e86:	2300      	movs	r3, #0
10002e88:	2401      	movs	r4, #1
10002e8a:	602b      	str	r3, [r5, #0]
10002e8c:	f000 fd76 	bl	1000397c <vPortExitCritical>
10002e90:	0020      	movs	r0, r4
10002e92:	bdf8      	pop	{r3, r4, r5, r6, r7, pc}
10002e94:	1a0f      	subs	r7, r1, r0
10002e96:	42bb      	cmp	r3, r7
10002e98:	d9f5      	bls.n	10002e86 <xTaskCheckForTimeOut+0x26>
10002e9a:	1a5b      	subs	r3, r3, r1
10002e9c:	181b      	adds	r3, r3, r0
10002e9e:	602b      	str	r3, [r5, #0]
10002ea0:	4663      	mov	r3, ip
10002ea2:	695b      	ldr	r3, [r3, #20]
10002ea4:	6023      	str	r3, [r4, #0]
10002ea6:	6ed3      	ldr	r3, [r2, #108]	; 0x6c
10002ea8:	6063      	str	r3, [r4, #4]
10002eaa:	2400      	movs	r4, #0
10002eac:	e7ee      	b.n	10002e8c <xTaskCheckForTimeOut+0x2c>
10002eae:	2400      	movs	r4, #0
10002eb0:	e7ec      	b.n	10002e8c <xTaskCheckForTimeOut+0x2c>
10002eb2:	46c0      	nop			; (mov r8, r8)
10002eb4:	20000364 	.word	0x20000364
10002eb8:	200003e4 	.word	0x200003e4

10002ebc <vTaskMissedYield>:
10002ebc:	2201      	movs	r2, #1
10002ebe:	4b01      	ldr	r3, [pc, #4]	; (10002ec4 <vTaskMissedYield+0x8>)
10002ec0:	61da      	str	r2, [r3, #28]
10002ec2:	4770      	bx	lr
10002ec4:	200003e4 	.word	0x200003e4

10002ec8 <vTaskSetThreadLocalStoragePointer>:
10002ec8:	2904      	cmp	r1, #4
10002eca:	dc05      	bgt.n	10002ed8 <vTaskSetThreadLocalStoragePointer+0x10>
10002ecc:	2800      	cmp	r0, #0
10002ece:	d004      	beq.n	10002eda <vTaskSetThreadLocalStoragePointer+0x12>
10002ed0:	3110      	adds	r1, #16
10002ed2:	0089      	lsls	r1, r1, #2
10002ed4:	1841      	adds	r1, r0, r1
10002ed6:	604a      	str	r2, [r1, #4]
10002ed8:	4770      	bx	lr
10002eda:	4b01      	ldr	r3, [pc, #4]	; (10002ee0 <vTaskSetThreadLocalStoragePointer+0x18>)
10002edc:	6f18      	ldr	r0, [r3, #112]	; 0x70
10002ede:	e7f7      	b.n	10002ed0 <vTaskSetThreadLocalStoragePointer+0x8>
10002ee0:	20000364 	.word	0x20000364

10002ee4 <pvTaskGetThreadLocalStoragePointer>:
10002ee4:	2904      	cmp	r1, #4
10002ee6:	dc09      	bgt.n	10002efc <pvTaskGetThreadLocalStoragePointer+0x18>
10002ee8:	2800      	cmp	r0, #0
10002eea:	d004      	beq.n	10002ef6 <pvTaskGetThreadLocalStoragePointer+0x12>
10002eec:	3110      	adds	r1, #16
10002eee:	0089      	lsls	r1, r1, #2
10002ef0:	1841      	adds	r1, r0, r1
10002ef2:	6848      	ldr	r0, [r1, #4]
10002ef4:	4770      	bx	lr
10002ef6:	4b02      	ldr	r3, [pc, #8]	; (10002f00 <pvTaskGetThreadLocalStoragePointer+0x1c>)
10002ef8:	6f18      	ldr	r0, [r3, #112]	; 0x70
10002efa:	e7f7      	b.n	10002eec <pvTaskGetThreadLocalStoragePointer+0x8>
10002efc:	2000      	movs	r0, #0
10002efe:	e7f9      	b.n	10002ef4 <pvTaskGetThreadLocalStoragePointer+0x10>
10002f00:	20000364 	.word	0x20000364

10002f04 <xTaskGetCurrentTaskHandle>:
10002f04:	4b01      	ldr	r3, [pc, #4]	; (10002f0c <xTaskGetCurrentTaskHandle+0x8>)
10002f06:	6f18      	ldr	r0, [r3, #112]	; 0x70
10002f08:	4770      	bx	lr
10002f0a:	46c0      	nop			; (mov r8, r8)
10002f0c:	20000364 	.word	0x20000364

10002f10 <xTaskGetSchedulerState>:
10002f10:	4b04      	ldr	r3, [pc, #16]	; (10002f24 <xTaskGetSchedulerState+0x14>)
10002f12:	2001      	movs	r0, #1
10002f14:	6dda      	ldr	r2, [r3, #92]	; 0x5c
10002f16:	2a00      	cmp	r2, #0
10002f18:	d003      	beq.n	10002f22 <xTaskGetSchedulerState+0x12>
10002f1a:	6e58      	ldr	r0, [r3, #100]	; 0x64
10002f1c:	4243      	negs	r3, r0
10002f1e:	4158      	adcs	r0, r3
10002f20:	0040      	lsls	r0, r0, #1
10002f22:	4770      	bx	lr
10002f24:	200003e4 	.word	0x200003e4

10002f28 <uxTaskResetEventItemValue>:
10002f28:	4b04      	ldr	r3, [pc, #16]	; (10002f3c <uxTaskResetEventItemValue+0x14>)
10002f2a:	6f1a      	ldr	r2, [r3, #112]	; 0x70
10002f2c:	6f19      	ldr	r1, [r3, #112]	; 0x70
10002f2e:	6990      	ldr	r0, [r2, #24]
10002f30:	6f1a      	ldr	r2, [r3, #112]	; 0x70
10002f32:	2304      	movs	r3, #4
10002f34:	6ac9      	ldr	r1, [r1, #44]	; 0x2c
10002f36:	1a5b      	subs	r3, r3, r1
10002f38:	6193      	str	r3, [r2, #24]
10002f3a:	4770      	bx	lr
10002f3c:	20000364 	.word	0x20000364

10002f40 <ulTaskGenericNotifyTake>:
10002f40:	b5f0      	push	{r4, r5, r6, r7, lr}
10002f42:	0004      	movs	r4, r0
10002f44:	46c6      	mov	lr, r8
10002f46:	0025      	movs	r5, r4
10002f48:	b500      	push	{lr}
10002f4a:	0017      	movs	r7, r2
10002f4c:	4688      	mov	r8, r1
10002f4e:	f000 fd09 	bl	10003964 <vPortEnterCritical>
10002f52:	4e19      	ldr	r6, [pc, #100]	; (10002fb8 <ulTaskGenericNotifyTake+0x78>)
10002f54:	3516      	adds	r5, #22
10002f56:	6f33      	ldr	r3, [r6, #112]	; 0x70
10002f58:	00aa      	lsls	r2, r5, #2
10002f5a:	58d3      	ldr	r3, [r2, r3]
10002f5c:	2b00      	cmp	r3, #0
10002f5e:	d106      	bne.n	10002f6e <ulTaskGenericNotifyTake+0x2e>
10002f60:	2201      	movs	r2, #1
10002f62:	6f33      	ldr	r3, [r6, #112]	; 0x70
10002f64:	191b      	adds	r3, r3, r4
10002f66:	3364      	adds	r3, #100	; 0x64
10002f68:	701a      	strb	r2, [r3, #0]
10002f6a:	2f00      	cmp	r7, #0
10002f6c:	d11d      	bne.n	10002faa <ulTaskGenericNotifyTake+0x6a>
10002f6e:	f000 fd05 	bl	1000397c <vPortExitCritical>
10002f72:	f000 fcf7 	bl	10003964 <vPortEnterCritical>
10002f76:	6f33      	ldr	r3, [r6, #112]	; 0x70
10002f78:	00ad      	lsls	r5, r5, #2
10002f7a:	58ef      	ldr	r7, [r5, r3]
10002f7c:	2f00      	cmp	r7, #0
10002f7e:	d005      	beq.n	10002f8c <ulTaskGenericNotifyTake+0x4c>
10002f80:	4643      	mov	r3, r8
10002f82:	2b00      	cmp	r3, #0
10002f84:	d00d      	beq.n	10002fa2 <ulTaskGenericNotifyTake+0x62>
10002f86:	2200      	movs	r2, #0
10002f88:	6f33      	ldr	r3, [r6, #112]	; 0x70
10002f8a:	50ea      	str	r2, [r5, r3]
10002f8c:	2300      	movs	r3, #0
10002f8e:	6f30      	ldr	r0, [r6, #112]	; 0x70
10002f90:	1900      	adds	r0, r0, r4
10002f92:	3064      	adds	r0, #100	; 0x64
10002f94:	7003      	strb	r3, [r0, #0]
10002f96:	f000 fcf1 	bl	1000397c <vPortExitCritical>
10002f9a:	0038      	movs	r0, r7
10002f9c:	bc04      	pop	{r2}
10002f9e:	4690      	mov	r8, r2
10002fa0:	bdf0      	pop	{r4, r5, r6, r7, pc}
10002fa2:	6f33      	ldr	r3, [r6, #112]	; 0x70
10002fa4:	1e7a      	subs	r2, r7, #1
10002fa6:	50ea      	str	r2, [r5, r3]
10002fa8:	e7f0      	b.n	10002f8c <ulTaskGenericNotifyTake+0x4c>
10002faa:	2101      	movs	r1, #1
10002fac:	0038      	movs	r0, r7
10002fae:	f7fe ff5b 	bl	10001e68 <prvAddCurrentTaskToDelayedList>
10002fb2:	f000 fccb 	bl	1000394c <vPortYield>
10002fb6:	e7da      	b.n	10002f6e <ulTaskGenericNotifyTake+0x2e>
10002fb8:	20000364 	.word	0x20000364

10002fbc <xTaskGenericNotifyWait>:
10002fbc:	b5f0      	push	{r4, r5, r6, r7, lr}
10002fbe:	46c6      	mov	lr, r8
10002fc0:	0004      	movs	r4, r0
10002fc2:	b500      	push	{lr}
10002fc4:	001f      	movs	r7, r3
10002fc6:	4688      	mov	r8, r1
10002fc8:	0016      	movs	r6, r2
10002fca:	f000 fccb 	bl	10003964 <vPortEnterCritical>
10002fce:	4d21      	ldr	r5, [pc, #132]	; (10003054 <xTaskGenericNotifyWait+0x98>)
10002fd0:	6f28      	ldr	r0, [r5, #112]	; 0x70
10002fd2:	1900      	adds	r0, r0, r4
10002fd4:	3064      	adds	r0, #100	; 0x64
10002fd6:	7803      	ldrb	r3, [r0, #0]
10002fd8:	2b02      	cmp	r3, #2
10002fda:	d00e      	beq.n	10002ffa <xTaskGenericNotifyWait+0x3e>
10002fdc:	4641      	mov	r1, r8
10002fde:	6f2b      	ldr	r3, [r5, #112]	; 0x70
10002fe0:	00a2      	lsls	r2, r4, #2
10002fe2:	189b      	adds	r3, r3, r2
10002fe4:	6d9a      	ldr	r2, [r3, #88]	; 0x58
10002fe6:	438a      	bics	r2, r1
10002fe8:	659a      	str	r2, [r3, #88]	; 0x58
10002fea:	2201      	movs	r2, #1
10002fec:	6f2b      	ldr	r3, [r5, #112]	; 0x70
10002fee:	191b      	adds	r3, r3, r4
10002ff0:	3364      	adds	r3, #100	; 0x64
10002ff2:	701a      	strb	r2, [r3, #0]
10002ff4:	9b06      	ldr	r3, [sp, #24]
10002ff6:	2b00      	cmp	r3, #0
10002ff8:	d124      	bne.n	10003044 <xTaskGenericNotifyWait+0x88>
10002ffa:	f000 fcbf 	bl	1000397c <vPortExitCritical>
10002ffe:	f000 fcb1 	bl	10003964 <vPortEnterCritical>
10003002:	2f00      	cmp	r7, #0
10003004:	d005      	beq.n	10003012 <xTaskGenericNotifyWait+0x56>
10003006:	0023      	movs	r3, r4
10003008:	6f2a      	ldr	r2, [r5, #112]	; 0x70
1000300a:	3316      	adds	r3, #22
1000300c:	009b      	lsls	r3, r3, #2
1000300e:	589b      	ldr	r3, [r3, r2]
10003010:	603b      	str	r3, [r7, #0]
10003012:	6f2b      	ldr	r3, [r5, #112]	; 0x70
10003014:	2700      	movs	r7, #0
10003016:	191b      	adds	r3, r3, r4
10003018:	3364      	adds	r3, #100	; 0x64
1000301a:	781b      	ldrb	r3, [r3, #0]
1000301c:	2b02      	cmp	r3, #2
1000301e:	d106      	bne.n	1000302e <xTaskGenericNotifyWait+0x72>
10003020:	6f2b      	ldr	r3, [r5, #112]	; 0x70
10003022:	00a2      	lsls	r2, r4, #2
10003024:	189b      	adds	r3, r3, r2
10003026:	6d9a      	ldr	r2, [r3, #88]	; 0x58
10003028:	3701      	adds	r7, #1
1000302a:	43b2      	bics	r2, r6
1000302c:	659a      	str	r2, [r3, #88]	; 0x58
1000302e:	2300      	movs	r3, #0
10003030:	6f28      	ldr	r0, [r5, #112]	; 0x70
10003032:	1904      	adds	r4, r0, r4
10003034:	3464      	adds	r4, #100	; 0x64
10003036:	7023      	strb	r3, [r4, #0]
10003038:	f000 fca0 	bl	1000397c <vPortExitCritical>
1000303c:	0038      	movs	r0, r7
1000303e:	bc04      	pop	{r2}
10003040:	4690      	mov	r8, r2
10003042:	bdf0      	pop	{r4, r5, r6, r7, pc}
10003044:	2101      	movs	r1, #1
10003046:	0018      	movs	r0, r3
10003048:	f7fe ff0e 	bl	10001e68 <prvAddCurrentTaskToDelayedList>
1000304c:	f000 fc7e 	bl	1000394c <vPortYield>
10003050:	e7d3      	b.n	10002ffa <xTaskGenericNotifyWait+0x3e>
10003052:	46c0      	nop			; (mov r8, r8)
10003054:	20000364 	.word	0x20000364

10003058 <xTaskGenericNotify>:
10003058:	b5f0      	push	{r4, r5, r6, r7, lr}
1000305a:	46c6      	mov	lr, r8
1000305c:	b500      	push	{lr}
1000305e:	9d06      	ldr	r5, [sp, #24]
10003060:	0006      	movs	r6, r0
10003062:	000c      	movs	r4, r1
10003064:	4690      	mov	r8, r2
10003066:	001f      	movs	r7, r3
10003068:	f000 fc7c 	bl	10003964 <vPortEnterCritical>
1000306c:	2d00      	cmp	r5, #0
1000306e:	d004      	beq.n	1000307a <xTaskGenericNotify+0x22>
10003070:	0023      	movs	r3, r4
10003072:	3316      	adds	r3, #22
10003074:	009b      	lsls	r3, r3, #2
10003076:	599b      	ldr	r3, [r3, r6]
10003078:	602b      	str	r3, [r5, #0]
1000307a:	2302      	movs	r3, #2
1000307c:	1931      	adds	r1, r6, r4
1000307e:	3164      	adds	r1, #100	; 0x64
10003080:	780d      	ldrb	r5, [r1, #0]
10003082:	700b      	strb	r3, [r1, #0]
10003084:	b2ed      	uxtb	r5, r5
10003086:	2f03      	cmp	r7, #3
10003088:	d016      	beq.n	100030b8 <xTaskGenericNotify+0x60>
1000308a:	d811      	bhi.n	100030b0 <xTaskGenericNotify+0x58>
1000308c:	2f01      	cmp	r7, #1
1000308e:	d048      	beq.n	10003122 <xTaskGenericNotify+0xca>
10003090:	2f02      	cmp	r7, #2
10003092:	d104      	bne.n	1000309e <xTaskGenericNotify+0x46>
10003094:	00a4      	lsls	r4, r4, #2
10003096:	1934      	adds	r4, r6, r4
10003098:	6da3      	ldr	r3, [r4, #88]	; 0x58
1000309a:	3301      	adds	r3, #1
1000309c:	65a3      	str	r3, [r4, #88]	; 0x58
1000309e:	2d01      	cmp	r5, #1
100030a0:	d010      	beq.n	100030c4 <xTaskGenericNotify+0x6c>
100030a2:	2401      	movs	r4, #1
100030a4:	f000 fc6a 	bl	1000397c <vPortExitCritical>
100030a8:	0020      	movs	r0, r4
100030aa:	bc04      	pop	{r2}
100030ac:	4690      	mov	r8, r2
100030ae:	bdf0      	pop	{r4, r5, r6, r7, pc}
100030b0:	2f04      	cmp	r7, #4
100030b2:	d1f4      	bne.n	1000309e <xTaskGenericNotify+0x46>
100030b4:	2d02      	cmp	r5, #2
100030b6:	d032      	beq.n	1000311e <xTaskGenericNotify+0xc6>
100030b8:	4643      	mov	r3, r8
100030ba:	3416      	adds	r4, #22
100030bc:	00a4      	lsls	r4, r4, #2
100030be:	51a3      	str	r3, [r4, r6]
100030c0:	2d01      	cmp	r5, #1
100030c2:	d1ee      	bne.n	100030a2 <xTaskGenericNotify+0x4a>
100030c4:	68b2      	ldr	r2, [r6, #8]
100030c6:	68f1      	ldr	r1, [r6, #12]
100030c8:	6973      	ldr	r3, [r6, #20]
100030ca:	6091      	str	r1, [r2, #8]
100030cc:	68f1      	ldr	r1, [r6, #12]
100030ce:	1d35      	adds	r5, r6, #4
100030d0:	604a      	str	r2, [r1, #4]
100030d2:	685a      	ldr	r2, [r3, #4]
100030d4:	42aa      	cmp	r2, r5
100030d6:	d02d      	beq.n	10003134 <xTaskGenericNotify+0xdc>
100030d8:	681a      	ldr	r2, [r3, #0]
100030da:	3a01      	subs	r2, #1
100030dc:	601a      	str	r2, [r3, #0]
100030de:	4b16      	ldr	r3, [pc, #88]	; (10003138 <xTaskGenericNotify+0xe0>)
100030e0:	6af2      	ldr	r2, [r6, #44]	; 0x2c
100030e2:	6999      	ldr	r1, [r3, #24]
100030e4:	428a      	cmp	r2, r1
100030e6:	d900      	bls.n	100030ea <xTaskGenericNotify+0x92>
100030e8:	619a      	str	r2, [r3, #24]
100030ea:	0093      	lsls	r3, r2, #2
100030ec:	4813      	ldr	r0, [pc, #76]	; (1000313c <xTaskGenericNotify+0xe4>)
100030ee:	189b      	adds	r3, r3, r2
100030f0:	009b      	lsls	r3, r3, #2
100030f2:	18c4      	adds	r4, r0, r3
100030f4:	6a21      	ldr	r1, [r4, #32]
100030f6:	688f      	ldr	r7, [r1, #8]
100030f8:	60b1      	str	r1, [r6, #8]
100030fa:	60f7      	str	r7, [r6, #12]
100030fc:	688f      	ldr	r7, [r1, #8]
100030fe:	607d      	str	r5, [r7, #4]
10003100:	608d      	str	r5, [r1, #8]
10003102:	0001      	movs	r1, r0
10003104:	311c      	adds	r1, #28
10003106:	18cb      	adds	r3, r1, r3
10003108:	6173      	str	r3, [r6, #20]
1000310a:	69e3      	ldr	r3, [r4, #28]
1000310c:	3301      	adds	r3, #1
1000310e:	61e3      	str	r3, [r4, #28]
10003110:	6f03      	ldr	r3, [r0, #112]	; 0x70
10003112:	6adb      	ldr	r3, [r3, #44]	; 0x2c
10003114:	429a      	cmp	r2, r3
10003116:	d9c4      	bls.n	100030a2 <xTaskGenericNotify+0x4a>
10003118:	f000 fc18 	bl	1000394c <vPortYield>
1000311c:	e7c1      	b.n	100030a2 <xTaskGenericNotify+0x4a>
1000311e:	2400      	movs	r4, #0
10003120:	e7c0      	b.n	100030a4 <xTaskGenericNotify+0x4c>
10003122:	4647      	mov	r7, r8
10003124:	00a4      	lsls	r4, r4, #2
10003126:	1934      	adds	r4, r6, r4
10003128:	6da2      	ldr	r2, [r4, #88]	; 0x58
1000312a:	4317      	orrs	r7, r2
1000312c:	65a7      	str	r7, [r4, #88]	; 0x58
1000312e:	2d01      	cmp	r5, #1
10003130:	d1b7      	bne.n	100030a2 <xTaskGenericNotify+0x4a>
10003132:	e7c7      	b.n	100030c4 <xTaskGenericNotify+0x6c>
10003134:	6059      	str	r1, [r3, #4]
10003136:	e7cf      	b.n	100030d8 <xTaskGenericNotify+0x80>
10003138:	200003e4 	.word	0x200003e4
1000313c:	20000364 	.word	0x20000364

10003140 <xTaskGenericNotifyFromISR>:
10003140:	b5f8      	push	{r3, r4, r5, r6, r7, lr}
10003142:	4647      	mov	r7, r8
10003144:	46ce      	mov	lr, r9
10003146:	b580      	push	{r7, lr}
10003148:	9f08      	ldr	r7, [sp, #32]
1000314a:	0006      	movs	r6, r0
1000314c:	000c      	movs	r4, r1
1000314e:	4690      	mov	r8, r2
10003150:	001d      	movs	r5, r3
10003152:	f000 fc1d 	bl	10003990 <ulSetInterruptMaskFromISR>
10003156:	2f00      	cmp	r7, #0
10003158:	d004      	beq.n	10003164 <xTaskGenericNotifyFromISR+0x24>
1000315a:	0023      	movs	r3, r4
1000315c:	3316      	adds	r3, #22
1000315e:	009b      	lsls	r3, r3, #2
10003160:	599b      	ldr	r3, [r3, r6]
10003162:	603b      	str	r3, [r7, #0]
10003164:	2202      	movs	r2, #2
10003166:	1933      	adds	r3, r6, r4
10003168:	3364      	adds	r3, #100	; 0x64
1000316a:	781f      	ldrb	r7, [r3, #0]
1000316c:	701a      	strb	r2, [r3, #0]
1000316e:	b2ff      	uxtb	r7, r7
10003170:	2d03      	cmp	r5, #3
10003172:	d017      	beq.n	100031a4 <xTaskGenericNotifyFromISR+0x64>
10003174:	d812      	bhi.n	1000319c <xTaskGenericNotifyFromISR+0x5c>
10003176:	2d01      	cmp	r5, #1
10003178:	d03c      	beq.n	100031f4 <xTaskGenericNotifyFromISR+0xb4>
1000317a:	2d02      	cmp	r5, #2
1000317c:	d104      	bne.n	10003188 <xTaskGenericNotifyFromISR+0x48>
1000317e:	00a4      	lsls	r4, r4, #2
10003180:	1934      	adds	r4, r6, r4
10003182:	6da3      	ldr	r3, [r4, #88]	; 0x58
10003184:	3301      	adds	r3, #1
10003186:	65a3      	str	r3, [r4, #88]	; 0x58
10003188:	2f01      	cmp	r7, #1
1000318a:	d011      	beq.n	100031b0 <xTaskGenericNotifyFromISR+0x70>
1000318c:	2401      	movs	r4, #1
1000318e:	f000 fc03 	bl	10003998 <vClearInterruptMaskFromISR>
10003192:	0020      	movs	r0, r4
10003194:	bc0c      	pop	{r2, r3}
10003196:	4690      	mov	r8, r2
10003198:	4699      	mov	r9, r3
1000319a:	bdf8      	pop	{r3, r4, r5, r6, r7, pc}
1000319c:	2d04      	cmp	r5, #4
1000319e:	d1f3      	bne.n	10003188 <xTaskGenericNotifyFromISR+0x48>
100031a0:	2f02      	cmp	r7, #2
100031a2:	d05e      	beq.n	10003262 <xTaskGenericNotifyFromISR+0x122>
100031a4:	4643      	mov	r3, r8
100031a6:	3416      	adds	r4, #22
100031a8:	00a4      	lsls	r4, r4, #2
100031aa:	51a3      	str	r3, [r4, r6]
100031ac:	2f01      	cmp	r7, #1
100031ae:	d1ed      	bne.n	1000318c <xTaskGenericNotifyFromISR+0x4c>
100031b0:	4b2e      	ldr	r3, [pc, #184]	; (1000326c <xTaskGenericNotifyFromISR+0x12c>)
100031b2:	6e5a      	ldr	r2, [r3, #100]	; 0x64
100031b4:	2a00      	cmp	r2, #0
100031b6:	d026      	beq.n	10003206 <xTaskGenericNotifyFromISR+0xc6>
100031b8:	6cda      	ldr	r2, [r3, #76]	; 0x4c
100031ba:	6891      	ldr	r1, [r2, #8]
100031bc:	61f2      	str	r2, [r6, #28]
100031be:	6231      	str	r1, [r6, #32]
100031c0:	0031      	movs	r1, r6
100031c2:	6894      	ldr	r4, [r2, #8]
100031c4:	3118      	adds	r1, #24
100031c6:	6061      	str	r1, [r4, #4]
100031c8:	6091      	str	r1, [r2, #8]
100031ca:	001a      	movs	r2, r3
100031cc:	3248      	adds	r2, #72	; 0x48
100031ce:	62b2      	str	r2, [r6, #40]	; 0x28
100031d0:	6c9a      	ldr	r2, [r3, #72]	; 0x48
100031d2:	4c27      	ldr	r4, [pc, #156]	; (10003270 <xTaskGenericNotifyFromISR+0x130>)
100031d4:	3201      	adds	r2, #1
100031d6:	649a      	str	r2, [r3, #72]	; 0x48
100031d8:	6af2      	ldr	r2, [r6, #44]	; 0x2c
100031da:	6f21      	ldr	r1, [r4, #112]	; 0x70
100031dc:	6ac9      	ldr	r1, [r1, #44]	; 0x2c
100031de:	4291      	cmp	r1, r2
100031e0:	d2d4      	bcs.n	1000318c <xTaskGenericNotifyFromISR+0x4c>
100031e2:	9a09      	ldr	r2, [sp, #36]	; 0x24
100031e4:	2a00      	cmp	r2, #0
100031e6:	d002      	beq.n	100031ee <xTaskGenericNotifyFromISR+0xae>
100031e8:	0011      	movs	r1, r2
100031ea:	2201      	movs	r2, #1
100031ec:	600a      	str	r2, [r1, #0]
100031ee:	2201      	movs	r2, #1
100031f0:	61da      	str	r2, [r3, #28]
100031f2:	e7cb      	b.n	1000318c <xTaskGenericNotifyFromISR+0x4c>
100031f4:	4643      	mov	r3, r8
100031f6:	00a4      	lsls	r4, r4, #2
100031f8:	1934      	adds	r4, r6, r4
100031fa:	6da2      	ldr	r2, [r4, #88]	; 0x58
100031fc:	431a      	orrs	r2, r3
100031fe:	65a2      	str	r2, [r4, #88]	; 0x58
10003200:	2f01      	cmp	r7, #1
10003202:	d1c3      	bne.n	1000318c <xTaskGenericNotifyFromISR+0x4c>
10003204:	e7d4      	b.n	100031b0 <xTaskGenericNotifyFromISR+0x70>
10003206:	68b1      	ldr	r1, [r6, #8]
10003208:	68f4      	ldr	r4, [r6, #12]
1000320a:	6972      	ldr	r2, [r6, #20]
1000320c:	608c      	str	r4, [r1, #8]
1000320e:	68f4      	ldr	r4, [r6, #12]
10003210:	6061      	str	r1, [r4, #4]
10003212:	1d31      	adds	r1, r6, #4
10003214:	4688      	mov	r8, r1
10003216:	6851      	ldr	r1, [r2, #4]
10003218:	4541      	cmp	r1, r8
1000321a:	d024      	beq.n	10003266 <xTaskGenericNotifyFromISR+0x126>
1000321c:	6811      	ldr	r1, [r2, #0]
1000321e:	3901      	subs	r1, #1
10003220:	6011      	str	r1, [r2, #0]
10003222:	6999      	ldr	r1, [r3, #24]
10003224:	6af2      	ldr	r2, [r6, #44]	; 0x2c
10003226:	428a      	cmp	r2, r1
10003228:	d900      	bls.n	1000322c <xTaskGenericNotifyFromISR+0xec>
1000322a:	619a      	str	r2, [r3, #24]
1000322c:	0091      	lsls	r1, r2, #2
1000322e:	4c10      	ldr	r4, [pc, #64]	; (10003270 <xTaskGenericNotifyFromISR+0x130>)
10003230:	1889      	adds	r1, r1, r2
10003232:	0089      	lsls	r1, r1, #2
10003234:	4689      	mov	r9, r1
10003236:	46a4      	mov	ip, r4
10003238:	44cc      	add	ip, r9
1000323a:	4661      	mov	r1, ip
1000323c:	4647      	mov	r7, r8
1000323e:	6a0d      	ldr	r5, [r1, #32]
10003240:	68a9      	ldr	r1, [r5, #8]
10003242:	60b5      	str	r5, [r6, #8]
10003244:	60f1      	str	r1, [r6, #12]
10003246:	68a9      	ldr	r1, [r5, #8]
10003248:	604f      	str	r7, [r1, #4]
1000324a:	60af      	str	r7, [r5, #8]
1000324c:	0025      	movs	r5, r4
1000324e:	351c      	adds	r5, #28
10003250:	0029      	movs	r1, r5
10003252:	4449      	add	r1, r9
10003254:	6171      	str	r1, [r6, #20]
10003256:	4661      	mov	r1, ip
10003258:	4665      	mov	r5, ip
1000325a:	69c9      	ldr	r1, [r1, #28]
1000325c:	3101      	adds	r1, #1
1000325e:	61e9      	str	r1, [r5, #28]
10003260:	e7bb      	b.n	100031da <xTaskGenericNotifyFromISR+0x9a>
10003262:	2400      	movs	r4, #0
10003264:	e793      	b.n	1000318e <xTaskGenericNotifyFromISR+0x4e>
10003266:	6054      	str	r4, [r2, #4]
10003268:	e7d8      	b.n	1000321c <xTaskGenericNotifyFromISR+0xdc>
1000326a:	46c0      	nop			; (mov r8, r8)
1000326c:	200003e4 	.word	0x200003e4
10003270:	20000364 	.word	0x20000364

10003274 <vTaskGenericNotifyGiveFromISR>:
10003274:	b5f0      	push	{r4, r5, r6, r7, lr}
10003276:	46d6      	mov	lr, sl
10003278:	4646      	mov	r6, r8
1000327a:	464f      	mov	r7, r9
1000327c:	000c      	movs	r4, r1
1000327e:	0005      	movs	r5, r0
10003280:	b5c0      	push	{r6, r7, lr}
10003282:	0016      	movs	r6, r2
10003284:	f000 fb84 	bl	10003990 <ulSetInterruptMaskFromISR>
10003288:	2102      	movs	r1, #2
1000328a:	192b      	adds	r3, r5, r4
1000328c:	3364      	adds	r3, #100	; 0x64
1000328e:	00a4      	lsls	r4, r4, #2
10003290:	781a      	ldrb	r2, [r3, #0]
10003292:	192c      	adds	r4, r5, r4
10003294:	7019      	strb	r1, [r3, #0]
10003296:	6da3      	ldr	r3, [r4, #88]	; 0x58
10003298:	3301      	adds	r3, #1
1000329a:	65a3      	str	r3, [r4, #88]	; 0x58
1000329c:	2a01      	cmp	r2, #1
1000329e:	d006      	beq.n	100032ae <vTaskGenericNotifyGiveFromISR+0x3a>
100032a0:	f000 fb7a 	bl	10003998 <vClearInterruptMaskFromISR>
100032a4:	bc1c      	pop	{r2, r3, r4}
100032a6:	4690      	mov	r8, r2
100032a8:	4699      	mov	r9, r3
100032aa:	46a2      	mov	sl, r4
100032ac:	bdf0      	pop	{r4, r5, r6, r7, pc}
100032ae:	4b29      	ldr	r3, [pc, #164]	; (10003354 <vTaskGenericNotifyGiveFromISR+0xe0>)
100032b0:	6e5a      	ldr	r2, [r3, #100]	; 0x64
100032b2:	2a00      	cmp	r2, #0
100032b4:	d01b      	beq.n	100032ee <vTaskGenericNotifyGiveFromISR+0x7a>
100032b6:	6cda      	ldr	r2, [r3, #76]	; 0x4c
100032b8:	6891      	ldr	r1, [r2, #8]
100032ba:	61ea      	str	r2, [r5, #28]
100032bc:	6229      	str	r1, [r5, #32]
100032be:	0029      	movs	r1, r5
100032c0:	6894      	ldr	r4, [r2, #8]
100032c2:	3118      	adds	r1, #24
100032c4:	6061      	str	r1, [r4, #4]
100032c6:	6091      	str	r1, [r2, #8]
100032c8:	001a      	movs	r2, r3
100032ca:	3248      	adds	r2, #72	; 0x48
100032cc:	62aa      	str	r2, [r5, #40]	; 0x28
100032ce:	6c9a      	ldr	r2, [r3, #72]	; 0x48
100032d0:	4c21      	ldr	r4, [pc, #132]	; (10003358 <vTaskGenericNotifyGiveFromISR+0xe4>)
100032d2:	3201      	adds	r2, #1
100032d4:	649a      	str	r2, [r3, #72]	; 0x48
100032d6:	6aea      	ldr	r2, [r5, #44]	; 0x2c
100032d8:	6f21      	ldr	r1, [r4, #112]	; 0x70
100032da:	6ac9      	ldr	r1, [r1, #44]	; 0x2c
100032dc:	4291      	cmp	r1, r2
100032de:	d2df      	bcs.n	100032a0 <vTaskGenericNotifyGiveFromISR+0x2c>
100032e0:	2e00      	cmp	r6, #0
100032e2:	d001      	beq.n	100032e8 <vTaskGenericNotifyGiveFromISR+0x74>
100032e4:	2201      	movs	r2, #1
100032e6:	6032      	str	r2, [r6, #0]
100032e8:	2201      	movs	r2, #1
100032ea:	61da      	str	r2, [r3, #28]
100032ec:	e7d8      	b.n	100032a0 <vTaskGenericNotifyGiveFromISR+0x2c>
100032ee:	68a9      	ldr	r1, [r5, #8]
100032f0:	68ec      	ldr	r4, [r5, #12]
100032f2:	696a      	ldr	r2, [r5, #20]
100032f4:	608c      	str	r4, [r1, #8]
100032f6:	68ec      	ldr	r4, [r5, #12]
100032f8:	6061      	str	r1, [r4, #4]
100032fa:	1d29      	adds	r1, r5, #4
100032fc:	4688      	mov	r8, r1
100032fe:	6851      	ldr	r1, [r2, #4]
10003300:	4541      	cmp	r1, r8
10003302:	d025      	beq.n	10003350 <vTaskGenericNotifyGiveFromISR+0xdc>
10003304:	6811      	ldr	r1, [r2, #0]
10003306:	3901      	subs	r1, #1
10003308:	6011      	str	r1, [r2, #0]
1000330a:	6999      	ldr	r1, [r3, #24]
1000330c:	6aea      	ldr	r2, [r5, #44]	; 0x2c
1000330e:	428a      	cmp	r2, r1
10003310:	d900      	bls.n	10003314 <vTaskGenericNotifyGiveFromISR+0xa0>
10003312:	619a      	str	r2, [r3, #24]
10003314:	0091      	lsls	r1, r2, #2
10003316:	4c10      	ldr	r4, [pc, #64]	; (10003358 <vTaskGenericNotifyGiveFromISR+0xe4>)
10003318:	1889      	adds	r1, r1, r2
1000331a:	0089      	lsls	r1, r1, #2
1000331c:	1867      	adds	r7, r4, r1
1000331e:	468a      	mov	sl, r1
10003320:	6a39      	ldr	r1, [r7, #32]
10003322:	46b9      	mov	r9, r7
10003324:	468c      	mov	ip, r1
10003326:	60a9      	str	r1, [r5, #8]
10003328:	6889      	ldr	r1, [r1, #8]
1000332a:	4647      	mov	r7, r8
1000332c:	60e9      	str	r1, [r5, #12]
1000332e:	4661      	mov	r1, ip
10003330:	6889      	ldr	r1, [r1, #8]
10003332:	604f      	str	r7, [r1, #4]
10003334:	4641      	mov	r1, r8
10003336:	4667      	mov	r7, ip
10003338:	60b9      	str	r1, [r7, #8]
1000333a:	0027      	movs	r7, r4
1000333c:	371c      	adds	r7, #28
1000333e:	0039      	movs	r1, r7
10003340:	4451      	add	r1, sl
10003342:	6169      	str	r1, [r5, #20]
10003344:	4649      	mov	r1, r9
10003346:	464d      	mov	r5, r9
10003348:	69c9      	ldr	r1, [r1, #28]
1000334a:	3101      	adds	r1, #1
1000334c:	61e9      	str	r1, [r5, #28]
1000334e:	e7c3      	b.n	100032d8 <vTaskGenericNotifyGiveFromISR+0x64>
10003350:	6054      	str	r4, [r2, #4]
10003352:	e7d7      	b.n	10003304 <vTaskGenericNotifyGiveFromISR+0x90>
10003354:	200003e4 	.word	0x200003e4
10003358:	20000364 	.word	0x20000364

1000335c <xTaskGenericNotifyStateClear>:
1000335c:	b570      	push	{r4, r5, r6, lr}
1000335e:	0004      	movs	r4, r0
10003360:	000d      	movs	r5, r1
10003362:	2800      	cmp	r0, #0
10003364:	d00d      	beq.n	10003382 <xTaskGenericNotifyStateClear+0x26>
10003366:	1964      	adds	r4, r4, r5
10003368:	3464      	adds	r4, #100	; 0x64
1000336a:	f000 fafb 	bl	10003964 <vPortEnterCritical>
1000336e:	7823      	ldrb	r3, [r4, #0]
10003370:	2500      	movs	r5, #0
10003372:	2b02      	cmp	r3, #2
10003374:	d101      	bne.n	1000337a <xTaskGenericNotifyStateClear+0x1e>
10003376:	7025      	strb	r5, [r4, #0]
10003378:	3501      	adds	r5, #1
1000337a:	f000 faff 	bl	1000397c <vPortExitCritical>
1000337e:	0028      	movs	r0, r5
10003380:	bd70      	pop	{r4, r5, r6, pc}
10003382:	4b01      	ldr	r3, [pc, #4]	; (10003388 <xTaskGenericNotifyStateClear+0x2c>)
10003384:	6f1c      	ldr	r4, [r3, #112]	; 0x70
10003386:	e7ee      	b.n	10003366 <xTaskGenericNotifyStateClear+0xa>
10003388:	20000364 	.word	0x20000364

1000338c <ulTaskGenericNotifyValueClear>:
1000338c:	b570      	push	{r4, r5, r6, lr}
1000338e:	0004      	movs	r4, r0
10003390:	000d      	movs	r5, r1
10003392:	0016      	movs	r6, r2
10003394:	2800      	cmp	r0, #0
10003396:	d00b      	beq.n	100033b0 <ulTaskGenericNotifyValueClear+0x24>
10003398:	f000 fae4 	bl	10003964 <vPortEnterCritical>
1000339c:	00a8      	lsls	r0, r5, #2
1000339e:	1820      	adds	r0, r4, r0
100033a0:	6d84      	ldr	r4, [r0, #88]	; 0x58
100033a2:	6d83      	ldr	r3, [r0, #88]	; 0x58
100033a4:	43b3      	bics	r3, r6
100033a6:	6583      	str	r3, [r0, #88]	; 0x58
100033a8:	f000 fae8 	bl	1000397c <vPortExitCritical>
100033ac:	0020      	movs	r0, r4
100033ae:	bd70      	pop	{r4, r5, r6, pc}
100033b0:	4b01      	ldr	r3, [pc, #4]	; (100033b8 <ulTaskGenericNotifyValueClear+0x2c>)
100033b2:	6f1c      	ldr	r4, [r3, #112]	; 0x70
100033b4:	e7f0      	b.n	10003398 <ulTaskGenericNotifyValueClear+0xc>
100033b6:	46c0      	nop			; (mov r8, r8)
100033b8:	20000364 	.word	0x20000364

100033bc <prvTimerTask>:
100033bc:	b5f0      	push	{r4, r5, r6, r7, lr}
100033be:	4645      	mov	r5, r8
100033c0:	46de      	mov	lr, fp
100033c2:	4657      	mov	r7, sl
100033c4:	464e      	mov	r6, r9
100033c6:	b5e0      	push	{r5, r6, r7, lr}
100033c8:	4dbb      	ldr	r5, [pc, #748]	; (100036b8 <prvTimerTask+0x2fc>)
100033ca:	b087      	sub	sp, #28
100033cc:	682b      	ldr	r3, [r5, #0]
100033ce:	681c      	ldr	r4, [r3, #0]
100033d0:	2c00      	cmp	r4, #0
100033d2:	d100      	bne.n	100033d6 <prvTimerTask+0x1a>
100033d4:	e0c8      	b.n	10003568 <prvTimerTask+0x1ac>
100033d6:	68db      	ldr	r3, [r3, #12]
100033d8:	681c      	ldr	r4, [r3, #0]
100033da:	f7ff f9f5 	bl	100027c8 <vTaskSuspendAll>
100033de:	f7ff fb07 	bl	100029f0 <xTaskGetTickCount>
100033e2:	686b      	ldr	r3, [r5, #4]
100033e4:	0007      	movs	r7, r0
100033e6:	4298      	cmp	r0, r3
100033e8:	d200      	bcs.n	100033ec <prvTimerTask+0x30>
100033ea:	e0d6      	b.n	1000359a <prvTimerTask+0x1de>
100033ec:	6068      	str	r0, [r5, #4]
100033ee:	4284      	cmp	r4, r0
100033f0:	d800      	bhi.n	100033f4 <prvTimerTask+0x38>
100033f2:	e127      	b.n	10003644 <prvTimerTask+0x288>
100033f4:	2200      	movs	r2, #0
100033f6:	68e8      	ldr	r0, [r5, #12]
100033f8:	1be1      	subs	r1, r4, r7
100033fa:	f001 fd61 	bl	10004ec0 <vQueueWaitForMessageRestricted>
100033fe:	f7ff f9eb 	bl	100027d8 <xTaskResumeAll>
10003402:	2800      	cmp	r0, #0
10003404:	d100      	bne.n	10003408 <prvTimerTask+0x4c>
10003406:	e0c5      	b.n	10003594 <prvTimerTask+0x1d8>
10003408:	2324      	movs	r3, #36	; 0x24
1000340a:	469a      	mov	sl, r3
1000340c:	2200      	movs	r2, #0
1000340e:	68e8      	ldr	r0, [r5, #12]
10003410:	a903      	add	r1, sp, #12
10003412:	f000 ffa7 	bl	10004364 <xQueueReceive>
10003416:	2800      	cmp	r0, #0
10003418:	d0d8      	beq.n	100033cc <prvTimerTask+0x10>
1000341a:	9b03      	ldr	r3, [sp, #12]
1000341c:	9301      	str	r3, [sp, #4]
1000341e:	2b00      	cmp	r3, #0
10003420:	dbf4      	blt.n	1000340c <prvTimerTask+0x50>
10003422:	9f05      	ldr	r7, [sp, #20]
10003424:	697b      	ldr	r3, [r7, #20]
10003426:	2b00      	cmp	r3, #0
10003428:	d002      	beq.n	10003430 <prvTimerTask+0x74>
1000342a:	1d38      	adds	r0, r7, #4
1000342c:	f000 fc9c 	bl	10003d68 <uxListRemove>
10003430:	f7ff fade 	bl	100029f0 <xTaskGetTickCount>
10003434:	686b      	ldr	r3, [r5, #4]
10003436:	4680      	mov	r8, r0
10003438:	4298      	cmp	r0, r3
1000343a:	d30f      	bcc.n	1000345c <prvTimerTask+0xa0>
1000343c:	4643      	mov	r3, r8
1000343e:	606b      	str	r3, [r5, #4]
10003440:	9b03      	ldr	r3, [sp, #12]
10003442:	2b09      	cmp	r3, #9
10003444:	d8e2      	bhi.n	1000340c <prvTimerTask+0x50>
10003446:	4a9d      	ldr	r2, [pc, #628]	; (100036bc <prvTimerTask+0x300>)
10003448:	009b      	lsls	r3, r3, #2
1000344a:	58d3      	ldr	r3, [r2, r3]
1000344c:	469f      	mov	pc, r3
1000344e:	2201      	movs	r2, #1
10003450:	4393      	bics	r3, r2
10003452:	4652      	mov	r2, sl
10003454:	54a3      	strb	r3, [r4, r2]
10003456:	0020      	movs	r0, r4
10003458:	6a23      	ldr	r3, [r4, #32]
1000345a:	4798      	blx	r3
1000345c:	682b      	ldr	r3, [r5, #0]
1000345e:	681a      	ldr	r2, [r3, #0]
10003460:	2a00      	cmp	r2, #0
10003462:	d100      	bne.n	10003466 <prvTimerTask+0xaa>
10003464:	e0e0      	b.n	10003628 <prvTimerTask+0x26c>
10003466:	68db      	ldr	r3, [r3, #12]
10003468:	68dc      	ldr	r4, [r3, #12]
1000346a:	681e      	ldr	r6, [r3, #0]
1000346c:	1d23      	adds	r3, r4, #4
1000346e:	0018      	movs	r0, r3
10003470:	469b      	mov	fp, r3
10003472:	f000 fc79 	bl	10003d68 <uxListRemove>
10003476:	4653      	mov	r3, sl
10003478:	2204      	movs	r2, #4
1000347a:	5ce3      	ldrb	r3, [r4, r3]
1000347c:	421a      	tst	r2, r3
1000347e:	d0e6      	beq.n	1000344e <prvTimerTask+0x92>
10003480:	69a3      	ldr	r3, [r4, #24]
10003482:	6124      	str	r4, [r4, #16]
10003484:	199a      	adds	r2, r3, r6
10003486:	43f6      	mvns	r6, r6
10003488:	4691      	mov	r9, r2
1000348a:	6062      	str	r2, [r4, #4]
1000348c:	429e      	cmp	r6, r3
1000348e:	d30b      	bcc.n	100034a8 <prvTimerTask+0xec>
10003490:	464e      	mov	r6, r9
10003492:	6a23      	ldr	r3, [r4, #32]
10003494:	0020      	movs	r0, r4
10003496:	4798      	blx	r3
10003498:	69a3      	ldr	r3, [r4, #24]
1000349a:	43f6      	mvns	r6, r6
1000349c:	4499      	add	r9, r3
1000349e:	464a      	mov	r2, r9
100034a0:	6124      	str	r4, [r4, #16]
100034a2:	6062      	str	r2, [r4, #4]
100034a4:	42b3      	cmp	r3, r6
100034a6:	d9f3      	bls.n	10003490 <prvTimerTask+0xd4>
100034a8:	4659      	mov	r1, fp
100034aa:	68a8      	ldr	r0, [r5, #8]
100034ac:	f000 fc44 	bl	10003d38 <vListInsert>
100034b0:	e7d1      	b.n	10003456 <prvTimerTask+0x9a>
100034b2:	4653      	mov	r3, sl
100034b4:	5cf8      	ldrb	r0, [r7, r3]
100034b6:	2301      	movs	r3, #1
100034b8:	4652      	mov	r2, sl
100034ba:	4303      	orrs	r3, r0
100034bc:	54bb      	strb	r3, [r7, r2]
100034be:	9904      	ldr	r1, [sp, #16]
100034c0:	69ba      	ldr	r2, [r7, #24]
100034c2:	613f      	str	r7, [r7, #16]
100034c4:	188b      	adds	r3, r1, r2
100034c6:	607b      	str	r3, [r7, #4]
100034c8:	4543      	cmp	r3, r8
100034ca:	d900      	bls.n	100034ce <prvTimerTask+0x112>
100034cc:	e0b0      	b.n	10003630 <prvTimerTask+0x274>
100034ce:	4644      	mov	r4, r8
100034d0:	1a61      	subs	r1, r4, r1
100034d2:	428a      	cmp	r2, r1
100034d4:	d839      	bhi.n	1000354a <prvTimerTask+0x18e>
100034d6:	0741      	lsls	r1, r0, #29
100034d8:	d411      	bmi.n	100034fe <prvTimerTask+0x142>
100034da:	2301      	movs	r3, #1
100034dc:	4398      	bics	r0, r3
100034de:	4653      	mov	r3, sl
100034e0:	54f8      	strb	r0, [r7, r3]
100034e2:	0038      	movs	r0, r7
100034e4:	6a3b      	ldr	r3, [r7, #32]
100034e6:	4798      	blx	r3
100034e8:	e790      	b.n	1000340c <prvTimerTask+0x50>
100034ea:	4641      	mov	r1, r8
100034ec:	1acb      	subs	r3, r1, r3
100034ee:	4293      	cmp	r3, r2
100034f0:	d200      	bcs.n	100034f4 <prvTimerTask+0x138>
100034f2:	e0dc      	b.n	100036ae <prvTimerTask+0x2f2>
100034f4:	6a3b      	ldr	r3, [r7, #32]
100034f6:	0038      	movs	r0, r7
100034f8:	4798      	blx	r3
100034fa:	0023      	movs	r3, r4
100034fc:	69ba      	ldr	r2, [r7, #24]
100034fe:	189c      	adds	r4, r3, r2
10003500:	607c      	str	r4, [r7, #4]
10003502:	613f      	str	r7, [r7, #16]
10003504:	45a0      	cmp	r8, r4
10003506:	d2f0      	bcs.n	100034ea <prvTimerTask+0x12e>
10003508:	4598      	cmp	r8, r3
1000350a:	d201      	bcs.n	10003510 <prvTimerTask+0x154>
1000350c:	42a3      	cmp	r3, r4
1000350e:	d9f1      	bls.n	100034f4 <prvTimerTask+0x138>
10003510:	6828      	ldr	r0, [r5, #0]
10003512:	1d39      	adds	r1, r7, #4
10003514:	f000 fc10 	bl	10003d38 <vListInsert>
10003518:	e7e3      	b.n	100034e2 <prvTimerTask+0x126>
1000351a:	4653      	mov	r3, sl
1000351c:	2201      	movs	r2, #1
1000351e:	5cfb      	ldrb	r3, [r7, r3]
10003520:	4393      	bics	r3, r2
10003522:	4652      	mov	r2, sl
10003524:	54bb      	strb	r3, [r7, r2]
10003526:	e771      	b.n	1000340c <prvTimerTask+0x50>
10003528:	4653      	mov	r3, sl
1000352a:	2201      	movs	r2, #1
1000352c:	5cfb      	ldrb	r3, [r7, r3]
1000352e:	4313      	orrs	r3, r2
10003530:	4652      	mov	r2, sl
10003532:	54bb      	strb	r3, [r7, r2]
10003534:	4642      	mov	r2, r8
10003536:	9b04      	ldr	r3, [sp, #16]
10003538:	613f      	str	r7, [r7, #16]
1000353a:	189a      	adds	r2, r3, r2
1000353c:	61bb      	str	r3, [r7, #24]
1000353e:	607a      	str	r2, [r7, #4]
10003540:	4542      	cmp	r2, r8
10003542:	d87a      	bhi.n	1000363a <prvTimerTask+0x27e>
10003544:	2b00      	cmp	r3, #0
10003546:	d100      	bne.n	1000354a <prvTimerTask+0x18e>
10003548:	e760      	b.n	1000340c <prvTimerTask+0x50>
1000354a:	68a8      	ldr	r0, [r5, #8]
1000354c:	1d39      	adds	r1, r7, #4
1000354e:	f000 fbf3 	bl	10003d38 <vListInsert>
10003552:	e75b      	b.n	1000340c <prvTimerTask+0x50>
10003554:	4653      	mov	r3, sl
10003556:	5cfb      	ldrb	r3, [r7, r3]
10003558:	079a      	lsls	r2, r3, #30
1000355a:	d400      	bmi.n	1000355e <prvTimerTask+0x1a2>
1000355c:	e09e      	b.n	1000369c <prvTimerTask+0x2e0>
1000355e:	2201      	movs	r2, #1
10003560:	4393      	bics	r3, r2
10003562:	4652      	mov	r2, sl
10003564:	54bb      	strb	r3, [r7, r2]
10003566:	e751      	b.n	1000340c <prvTimerTask+0x50>
10003568:	f7ff f92e 	bl	100027c8 <vTaskSuspendAll>
1000356c:	f7ff fa40 	bl	100029f0 <xTaskGetTickCount>
10003570:	686b      	ldr	r3, [r5, #4]
10003572:	0007      	movs	r7, r0
10003574:	4298      	cmp	r0, r3
10003576:	d310      	bcc.n	1000359a <prvTimerTask+0x1de>
10003578:	68ab      	ldr	r3, [r5, #8]
1000357a:	68e8      	ldr	r0, [r5, #12]
1000357c:	681a      	ldr	r2, [r3, #0]
1000357e:	1be1      	subs	r1, r4, r7
10003580:	4253      	negs	r3, r2
10003582:	415a      	adcs	r2, r3
10003584:	606f      	str	r7, [r5, #4]
10003586:	f001 fc9b 	bl	10004ec0 <vQueueWaitForMessageRestricted>
1000358a:	f7ff f925 	bl	100027d8 <xTaskResumeAll>
1000358e:	2800      	cmp	r0, #0
10003590:	d000      	beq.n	10003594 <prvTimerTask+0x1d8>
10003592:	e739      	b.n	10003408 <prvTimerTask+0x4c>
10003594:	f000 f9da 	bl	1000394c <vPortYield>
10003598:	e736      	b.n	10003408 <prvTimerTask+0x4c>
1000359a:	682b      	ldr	r3, [r5, #0]
1000359c:	681a      	ldr	r2, [r3, #0]
1000359e:	2a00      	cmp	r2, #0
100035a0:	d03b      	beq.n	1000361a <prvTimerTask+0x25e>
100035a2:	2224      	movs	r2, #36	; 0x24
100035a4:	4692      	mov	sl, r2
100035a6:	3a20      	subs	r2, #32
100035a8:	4693      	mov	fp, r2
100035aa:	e00a      	b.n	100035c2 <prvTimerTask+0x206>
100035ac:	2201      	movs	r2, #1
100035ae:	4393      	bics	r3, r2
100035b0:	4652      	mov	r2, sl
100035b2:	54a3      	strb	r3, [r4, r2]
100035b4:	6a23      	ldr	r3, [r4, #32]
100035b6:	0020      	movs	r0, r4
100035b8:	4798      	blx	r3
100035ba:	682b      	ldr	r3, [r5, #0]
100035bc:	681a      	ldr	r2, [r3, #0]
100035be:	2a00      	cmp	r2, #0
100035c0:	d02b      	beq.n	1000361a <prvTimerTask+0x25e>
100035c2:	68db      	ldr	r3, [r3, #12]
100035c4:	68dc      	ldr	r4, [r3, #12]
100035c6:	681e      	ldr	r6, [r3, #0]
100035c8:	1d23      	adds	r3, r4, #4
100035ca:	0018      	movs	r0, r3
100035cc:	4699      	mov	r9, r3
100035ce:	f000 fbcb 	bl	10003d68 <uxListRemove>
100035d2:	4653      	mov	r3, sl
100035d4:	465a      	mov	r2, fp
100035d6:	5ce3      	ldrb	r3, [r4, r3]
100035d8:	421a      	tst	r2, r3
100035da:	d0e7      	beq.n	100035ac <prvTimerTask+0x1f0>
100035dc:	69a3      	ldr	r3, [r4, #24]
100035de:	6124      	str	r4, [r4, #16]
100035e0:	18f2      	adds	r2, r6, r3
100035e2:	43f6      	mvns	r6, r6
100035e4:	4690      	mov	r8, r2
100035e6:	6062      	str	r2, [r4, #4]
100035e8:	429e      	cmp	r6, r3
100035ea:	d30b      	bcc.n	10003604 <prvTimerTask+0x248>
100035ec:	4646      	mov	r6, r8
100035ee:	6a23      	ldr	r3, [r4, #32]
100035f0:	0020      	movs	r0, r4
100035f2:	4798      	blx	r3
100035f4:	69a3      	ldr	r3, [r4, #24]
100035f6:	43f6      	mvns	r6, r6
100035f8:	4498      	add	r8, r3
100035fa:	4642      	mov	r2, r8
100035fc:	6124      	str	r4, [r4, #16]
100035fe:	6062      	str	r2, [r4, #4]
10003600:	42b3      	cmp	r3, r6
10003602:	d9f3      	bls.n	100035ec <prvTimerTask+0x230>
10003604:	4649      	mov	r1, r9
10003606:	68a8      	ldr	r0, [r5, #8]
10003608:	f000 fb96 	bl	10003d38 <vListInsert>
1000360c:	6a23      	ldr	r3, [r4, #32]
1000360e:	0020      	movs	r0, r4
10003610:	4798      	blx	r3
10003612:	682b      	ldr	r3, [r5, #0]
10003614:	681a      	ldr	r2, [r3, #0]
10003616:	2a00      	cmp	r2, #0
10003618:	d1d3      	bne.n	100035c2 <prvTimerTask+0x206>
1000361a:	68aa      	ldr	r2, [r5, #8]
1000361c:	606f      	str	r7, [r5, #4]
1000361e:	602a      	str	r2, [r5, #0]
10003620:	60ab      	str	r3, [r5, #8]
10003622:	f7ff f8d9 	bl	100027d8 <xTaskResumeAll>
10003626:	e6ef      	b.n	10003408 <prvTimerTask+0x4c>
10003628:	68aa      	ldr	r2, [r5, #8]
1000362a:	60ab      	str	r3, [r5, #8]
1000362c:	602a      	str	r2, [r5, #0]
1000362e:	e705      	b.n	1000343c <prvTimerTask+0x80>
10003630:	4541      	cmp	r1, r8
10003632:	d902      	bls.n	1000363a <prvTimerTask+0x27e>
10003634:	4299      	cmp	r1, r3
10003636:	d800      	bhi.n	1000363a <prvTimerTask+0x27e>
10003638:	e74d      	b.n	100034d6 <prvTimerTask+0x11a>
1000363a:	6828      	ldr	r0, [r5, #0]
1000363c:	1d39      	adds	r1, r7, #4
1000363e:	f000 fb7b 	bl	10003d38 <vListInsert>
10003642:	e6e3      	b.n	1000340c <prvTimerTask+0x50>
10003644:	f7ff f8c8 	bl	100027d8 <xTaskResumeAll>
10003648:	682b      	ldr	r3, [r5, #0]
1000364a:	68db      	ldr	r3, [r3, #12]
1000364c:	68de      	ldr	r6, [r3, #12]
1000364e:	1d33      	adds	r3, r6, #4
10003650:	0018      	movs	r0, r3
10003652:	4699      	mov	r9, r3
10003654:	f000 fb88 	bl	10003d68 <uxListRemove>
10003658:	2224      	movs	r2, #36	; 0x24
1000365a:	5cb3      	ldrb	r3, [r6, r2]
1000365c:	0759      	lsls	r1, r3, #29
1000365e:	d40d      	bmi.n	1000367c <prvTimerTask+0x2c0>
10003660:	2101      	movs	r1, #1
10003662:	438b      	bics	r3, r1
10003664:	54b3      	strb	r3, [r6, r2]
10003666:	0030      	movs	r0, r6
10003668:	6a33      	ldr	r3, [r6, #32]
1000366a:	4798      	blx	r3
1000366c:	e6cc      	b.n	10003408 <prvTimerTask+0x4c>
1000366e:	1b3c      	subs	r4, r7, r4
10003670:	42a3      	cmp	r3, r4
10003672:	d817      	bhi.n	100036a4 <prvTimerTask+0x2e8>
10003674:	0030      	movs	r0, r6
10003676:	6a33      	ldr	r3, [r6, #32]
10003678:	4798      	blx	r3
1000367a:	4644      	mov	r4, r8
1000367c:	69b3      	ldr	r3, [r6, #24]
1000367e:	6136      	str	r6, [r6, #16]
10003680:	18e2      	adds	r2, r4, r3
10003682:	4690      	mov	r8, r2
10003684:	6072      	str	r2, [r6, #4]
10003686:	4297      	cmp	r7, r2
10003688:	d2f1      	bcs.n	1000366e <prvTimerTask+0x2b2>
1000368a:	42a7      	cmp	r7, r4
1000368c:	d201      	bcs.n	10003692 <prvTimerTask+0x2d6>
1000368e:	4294      	cmp	r4, r2
10003690:	d9f0      	bls.n	10003674 <prvTimerTask+0x2b8>
10003692:	4649      	mov	r1, r9
10003694:	6828      	ldr	r0, [r5, #0]
10003696:	f000 fb4f 	bl	10003d38 <vListInsert>
1000369a:	e7e4      	b.n	10003666 <prvTimerTask+0x2aa>
1000369c:	0038      	movs	r0, r7
1000369e:	f000 fa81 	bl	10003ba4 <vPortFree>
100036a2:	e6b3      	b.n	1000340c <prvTimerTask+0x50>
100036a4:	4649      	mov	r1, r9
100036a6:	68a8      	ldr	r0, [r5, #8]
100036a8:	f000 fb46 	bl	10003d38 <vListInsert>
100036ac:	e7db      	b.n	10003666 <prvTimerTask+0x2aa>
100036ae:	68a8      	ldr	r0, [r5, #8]
100036b0:	1d39      	adds	r1, r7, #4
100036b2:	f000 fb41 	bl	10003d38 <vListInsert>
100036b6:	e714      	b.n	100034e2 <prvTimerTask+0x126>
100036b8:	20000454 	.word	0x20000454
100036bc:	1000513c 	.word	0x1000513c

100036c0 <xTimerCreateTimerTask>:
100036c0:	b570      	push	{r4, r5, r6, lr}
100036c2:	b082      	sub	sp, #8
100036c4:	f000 f94e 	bl	10003964 <vPortEnterCritical>
100036c8:	4c17      	ldr	r4, [pc, #92]	; (10003728 <xTimerCreateTimerTask+0x68>)
100036ca:	68e3      	ldr	r3, [r4, #12]
100036cc:	2b00      	cmp	r3, #0
100036ce:	d012      	beq.n	100036f6 <xTimerCreateTimerTask+0x36>
100036d0:	f000 f954 	bl	1000397c <vPortExitCritical>
100036d4:	68e3      	ldr	r3, [r4, #12]
100036d6:	2000      	movs	r0, #0
100036d8:	2b00      	cmp	r3, #0
100036da:	d00a      	beq.n	100036f2 <xTimerCreateTimerTask+0x32>
100036dc:	2303      	movs	r3, #3
100036de:	2280      	movs	r2, #128	; 0x80
100036e0:	3438      	adds	r4, #56	; 0x38
100036e2:	9300      	str	r3, [sp, #0]
100036e4:	4911      	ldr	r1, [pc, #68]	; (1000372c <xTimerCreateTimerTask+0x6c>)
100036e6:	2300      	movs	r3, #0
100036e8:	4811      	ldr	r0, [pc, #68]	; (10003730 <xTimerCreateTimerTask+0x70>)
100036ea:	9401      	str	r4, [sp, #4]
100036ec:	0052      	lsls	r2, r2, #1
100036ee:	f7fe fc91 	bl	10002014 <xTaskCreate>
100036f2:	b002      	add	sp, #8
100036f4:	bd70      	pop	{r4, r5, r6, pc}
100036f6:	0026      	movs	r6, r4
100036f8:	0025      	movs	r5, r4
100036fa:	3610      	adds	r6, #16
100036fc:	0030      	movs	r0, r6
100036fe:	3524      	adds	r5, #36	; 0x24
10003700:	f000 fafe 	bl	10003d00 <vListInitialise>
10003704:	0028      	movs	r0, r5
10003706:	f000 fafb 	bl	10003d00 <vListInitialise>
1000370a:	2200      	movs	r2, #0
1000370c:	210c      	movs	r1, #12
1000370e:	200a      	movs	r0, #10
10003710:	6026      	str	r6, [r4, #0]
10003712:	60a5      	str	r5, [r4, #8]
10003714:	f000 fb8a 	bl	10003e2c <xQueueGenericCreate>
10003718:	60e0      	str	r0, [r4, #12]
1000371a:	2800      	cmp	r0, #0
1000371c:	d0d8      	beq.n	100036d0 <xTimerCreateTimerTask+0x10>
1000371e:	4905      	ldr	r1, [pc, #20]	; (10003734 <xTimerCreateTimerTask+0x74>)
10003720:	f001 facc 	bl	10004cbc <vQueueAddToRegistry>
10003724:	e7d4      	b.n	100036d0 <xTimerCreateTimerTask+0x10>
10003726:	46c0      	nop			; (mov r8, r8)
10003728:	20000454 	.word	0x20000454
1000372c:	1000516c 	.word	0x1000516c
10003730:	100033bd 	.word	0x100033bd
10003734:	10005164 	.word	0x10005164

10003738 <xTimerCreate>:
10003738:	b5f8      	push	{r3, r4, r5, r6, r7, lr}
1000373a:	4645      	mov	r5, r8
1000373c:	46de      	mov	lr, fp
1000373e:	4657      	mov	r7, sl
10003740:	464e      	mov	r6, r9
10003742:	b5e0      	push	{r5, r6, r7, lr}
10003744:	0007      	movs	r7, r0
10003746:	2028      	movs	r0, #40	; 0x28
10003748:	4688      	mov	r8, r1
1000374a:	0016      	movs	r6, r2
1000374c:	001d      	movs	r5, r3
1000374e:	f000 f991 	bl	10003a74 <pvPortMalloc>
10003752:	1e04      	subs	r4, r0, #0
10003754:	d01b      	beq.n	1000378e <xTimerCreate+0x56>
10003756:	2324      	movs	r3, #36	; 0x24
10003758:	2200      	movs	r2, #0
1000375a:	54c2      	strb	r2, [r0, r3]
1000375c:	f000 f902 	bl	10003964 <vPortEnterCritical>
10003760:	4b1d      	ldr	r3, [pc, #116]	; (100037d8 <xTimerCreate+0xa0>)
10003762:	4699      	mov	r9, r3
10003764:	68db      	ldr	r3, [r3, #12]
10003766:	2b00      	cmp	r3, #0
10003768:	d018      	beq.n	1000379c <xTimerCreate+0x64>
1000376a:	f000 f907 	bl	1000397c <vPortExitCritical>
1000376e:	4643      	mov	r3, r8
10003770:	61a3      	str	r3, [r4, #24]
10003772:	9b0a      	ldr	r3, [sp, #40]	; 0x28
10003774:	6027      	str	r7, [r4, #0]
10003776:	61e5      	str	r5, [r4, #28]
10003778:	6223      	str	r3, [r4, #32]
1000377a:	1d20      	adds	r0, r4, #4
1000377c:	f000 facc 	bl	10003d18 <vListInitialiseItem>
10003780:	2e00      	cmp	r6, #0
10003782:	d004      	beq.n	1000378e <xTimerCreate+0x56>
10003784:	2224      	movs	r2, #36	; 0x24
10003786:	2104      	movs	r1, #4
10003788:	5ca3      	ldrb	r3, [r4, r2]
1000378a:	430b      	orrs	r3, r1
1000378c:	54a3      	strb	r3, [r4, r2]
1000378e:	0020      	movs	r0, r4
10003790:	bc3c      	pop	{r2, r3, r4, r5}
10003792:	4690      	mov	r8, r2
10003794:	4699      	mov	r9, r3
10003796:	46a2      	mov	sl, r4
10003798:	46ab      	mov	fp, r5
1000379a:	bdf8      	pop	{r3, r4, r5, r6, r7, pc}
1000379c:	3310      	adds	r3, #16
1000379e:	444b      	add	r3, r9
100037a0:	0018      	movs	r0, r3
100037a2:	469b      	mov	fp, r3
100037a4:	f000 faac 	bl	10003d00 <vListInitialise>
100037a8:	2324      	movs	r3, #36	; 0x24
100037aa:	444b      	add	r3, r9
100037ac:	0018      	movs	r0, r3
100037ae:	469a      	mov	sl, r3
100037b0:	f000 faa6 	bl	10003d00 <vListInitialise>
100037b4:	464b      	mov	r3, r9
100037b6:	465a      	mov	r2, fp
100037b8:	601a      	str	r2, [r3, #0]
100037ba:	4652      	mov	r2, sl
100037bc:	210c      	movs	r1, #12
100037be:	609a      	str	r2, [r3, #8]
100037c0:	200a      	movs	r0, #10
100037c2:	2200      	movs	r2, #0
100037c4:	f000 fb32 	bl	10003e2c <xQueueGenericCreate>
100037c8:	464b      	mov	r3, r9
100037ca:	60d8      	str	r0, [r3, #12]
100037cc:	2800      	cmp	r0, #0
100037ce:	d0cc      	beq.n	1000376a <xTimerCreate+0x32>
100037d0:	4902      	ldr	r1, [pc, #8]	; (100037dc <xTimerCreate+0xa4>)
100037d2:	f001 fa73 	bl	10004cbc <vQueueAddToRegistry>
100037d6:	e7c8      	b.n	1000376a <xTimerCreate+0x32>
100037d8:	20000454 	.word	0x20000454
100037dc:	10005164 	.word	0x10005164

100037e0 <xTimerGenericCommand>:
100037e0:	b570      	push	{r4, r5, r6, lr}
100037e2:	4e13      	ldr	r6, [pc, #76]	; (10003830 <xTimerGenericCommand+0x50>)
100037e4:	001c      	movs	r4, r3
100037e6:	68f5      	ldr	r5, [r6, #12]
100037e8:	b084      	sub	sp, #16
100037ea:	2d00      	cmp	r5, #0
100037ec:	d017      	beq.n	1000381e <xTimerGenericCommand+0x3e>
100037ee:	9101      	str	r1, [sp, #4]
100037f0:	9202      	str	r2, [sp, #8]
100037f2:	9003      	str	r0, [sp, #12]
100037f4:	2905      	cmp	r1, #5
100037f6:	dc0a      	bgt.n	1000380e <xTimerGenericCommand+0x2e>
100037f8:	f7ff fb8a 	bl	10002f10 <xTaskGetSchedulerState>
100037fc:	2802      	cmp	r0, #2
100037fe:	d010      	beq.n	10003822 <xTimerGenericCommand+0x42>
10003800:	2300      	movs	r3, #0
10003802:	2200      	movs	r2, #0
10003804:	68f0      	ldr	r0, [r6, #12]
10003806:	a901      	add	r1, sp, #4
10003808:	f000 fb5c 	bl	10003ec4 <xQueueGenericSend>
1000380c:	e005      	b.n	1000381a <xTimerGenericCommand+0x3a>
1000380e:	2300      	movs	r3, #0
10003810:	0022      	movs	r2, r4
10003812:	0028      	movs	r0, r5
10003814:	a901      	add	r1, sp, #4
10003816:	f000 fce5 	bl	100041e4 <xQueueGenericSendFromISR>
1000381a:	b004      	add	sp, #16
1000381c:	bd70      	pop	{r4, r5, r6, pc}
1000381e:	2000      	movs	r0, #0
10003820:	e7fb      	b.n	1000381a <xTimerGenericCommand+0x3a>
10003822:	2300      	movs	r3, #0
10003824:	68f0      	ldr	r0, [r6, #12]
10003826:	9a08      	ldr	r2, [sp, #32]
10003828:	a901      	add	r1, sp, #4
1000382a:	f000 fb4b 	bl	10003ec4 <xQueueGenericSend>
1000382e:	e7f4      	b.n	1000381a <xTimerGenericCommand+0x3a>
10003830:	20000454 	.word	0x20000454

10003834 <xTimerGetTimerDaemonTaskHandle>:
10003834:	4b01      	ldr	r3, [pc, #4]	; (1000383c <xTimerGetTimerDaemonTaskHandle+0x8>)
10003836:	6b98      	ldr	r0, [r3, #56]	; 0x38
10003838:	4770      	bx	lr
1000383a:	46c0      	nop			; (mov r8, r8)
1000383c:	20000454 	.word	0x20000454

10003840 <xTimerGetPeriod>:
10003840:	6980      	ldr	r0, [r0, #24]
10003842:	4770      	bx	lr

10003844 <vTimerSetReloadMode>:
10003844:	b570      	push	{r4, r5, r6, lr}
10003846:	0004      	movs	r4, r0
10003848:	000d      	movs	r5, r1
1000384a:	f000 f88b 	bl	10003964 <vPortEnterCritical>
1000384e:	2324      	movs	r3, #36	; 0x24
10003850:	2204      	movs	r2, #4
10003852:	5ce3      	ldrb	r3, [r4, r3]
10003854:	2d00      	cmp	r5, #0
10003856:	d005      	beq.n	10003864 <vTimerSetReloadMode+0x20>
10003858:	4313      	orrs	r3, r2
1000385a:	2224      	movs	r2, #36	; 0x24
1000385c:	54a3      	strb	r3, [r4, r2]
1000385e:	f000 f88d 	bl	1000397c <vPortExitCritical>
10003862:	bd70      	pop	{r4, r5, r6, pc}
10003864:	4393      	bics	r3, r2
10003866:	e7f8      	b.n	1000385a <vTimerSetReloadMode+0x16>

10003868 <xTimerGetReloadMode>:
10003868:	b510      	push	{r4, lr}
1000386a:	0004      	movs	r4, r0
1000386c:	f000 f87a 	bl	10003964 <vPortEnterCritical>
10003870:	2324      	movs	r3, #36	; 0x24
10003872:	5ce4      	ldrb	r4, [r4, r3]
10003874:	0764      	lsls	r4, r4, #29
10003876:	0fe4      	lsrs	r4, r4, #31
10003878:	f000 f880 	bl	1000397c <vPortExitCritical>
1000387c:	0020      	movs	r0, r4
1000387e:	bd10      	pop	{r4, pc}

10003880 <uxTimerGetReloadMode>:
10003880:	b510      	push	{r4, lr}
10003882:	0004      	movs	r4, r0
10003884:	f000 f86e 	bl	10003964 <vPortEnterCritical>
10003888:	2324      	movs	r3, #36	; 0x24
1000388a:	5ce4      	ldrb	r4, [r4, r3]
1000388c:	0764      	lsls	r4, r4, #29
1000388e:	0fe4      	lsrs	r4, r4, #31
10003890:	f000 f874 	bl	1000397c <vPortExitCritical>
10003894:	0020      	movs	r0, r4
10003896:	bd10      	pop	{r4, pc}

10003898 <xTimerGetExpiryTime>:
10003898:	6840      	ldr	r0, [r0, #4]
1000389a:	4770      	bx	lr

1000389c <pcTimerGetName>:
1000389c:	6800      	ldr	r0, [r0, #0]
1000389e:	4770      	bx	lr

100038a0 <xTimerIsTimerActive>:
100038a0:	b510      	push	{r4, lr}
100038a2:	0004      	movs	r4, r0
100038a4:	f000 f85e 	bl	10003964 <vPortEnterCritical>
100038a8:	2324      	movs	r3, #36	; 0x24
100038aa:	5ce3      	ldrb	r3, [r4, r3]
100038ac:	2401      	movs	r4, #1
100038ae:	401c      	ands	r4, r3
100038b0:	f000 f864 	bl	1000397c <vPortExitCritical>
100038b4:	0020      	movs	r0, r4
100038b6:	bd10      	pop	{r4, pc}

100038b8 <pvTimerGetTimerID>:
100038b8:	b510      	push	{r4, lr}
100038ba:	0004      	movs	r4, r0
100038bc:	f000 f852 	bl	10003964 <vPortEnterCritical>
100038c0:	69e4      	ldr	r4, [r4, #28]
100038c2:	f000 f85b 	bl	1000397c <vPortExitCritical>
100038c6:	0020      	movs	r0, r4
100038c8:	bd10      	pop	{r4, pc}
100038ca:	46c0      	nop			; (mov r8, r8)

100038cc <vTimerSetTimerID>:
100038cc:	b570      	push	{r4, r5, r6, lr}
100038ce:	000d      	movs	r5, r1
100038d0:	0004      	movs	r4, r0
100038d2:	f000 f847 	bl	10003964 <vPortEnterCritical>
100038d6:	61e5      	str	r5, [r4, #28]
100038d8:	f000 f850 	bl	1000397c <vPortExitCritical>
100038dc:	bd70      	pop	{r4, r5, r6, pc}
100038de:	46c0      	nop			; (mov r8, r8)

100038e0 <prvTaskExitError>:
100038e0:	2300      	movs	r3, #0
100038e2:	b082      	sub	sp, #8
100038e4:	9301      	str	r3, [sp, #4]
100038e6:	b672      	cpsid	i
100038e8:	9b01      	ldr	r3, [sp, #4]
100038ea:	2b00      	cmp	r3, #0
100038ec:	d0fc      	beq.n	100038e8 <prvTaskExitError+0x8>
100038ee:	b002      	add	sp, #8
100038f0:	4770      	bx	lr
100038f2:	46c0      	nop			; (mov r8, r8)

100038f4 <vPortStartFirstTask>:
100038f4:	4a0a      	ldr	r2, [pc, #40]	; (10003920 <pxCurrentTCBConst2>)
100038f6:	6813      	ldr	r3, [r2, #0]
100038f8:	6818      	ldr	r0, [r3, #0]
100038fa:	3020      	adds	r0, #32
100038fc:	f380 8809 	msr	PSP, r0
10003900:	2002      	movs	r0, #2
10003902:	f380 8814 	msr	CONTROL, r0
10003906:	f3bf 8f6f 	isb	sy
1000390a:	bc3f      	pop	{r0, r1, r2, r3, r4, r5}
1000390c:	46ae      	mov	lr, r5
1000390e:	bc08      	pop	{r3}
10003910:	bc04      	pop	{r2}
10003912:	b662      	cpsie	i
10003914:	4718      	bx	r3
10003916:	46c0      	nop			; (mov r8, r8)
10003918:	46c0      	nop			; (mov r8, r8)
1000391a:	46c0      	nop			; (mov r8, r8)
1000391c:	46c0      	nop			; (mov r8, r8)
1000391e:	46c0      	nop			; (mov r8, r8)

10003920 <pxCurrentTCBConst2>:
10003920:	200003d4 	.word	0x200003d4

10003924 <pxPortInitialiseStack>:
10003924:	b510      	push	{r4, lr}
10003926:	2480      	movs	r4, #128	; 0x80
10003928:	1f03      	subs	r3, r0, #4
1000392a:	0464      	lsls	r4, r4, #17
1000392c:	601c      	str	r4, [r3, #0]
1000392e:	3b04      	subs	r3, #4
10003930:	6019      	str	r1, [r3, #0]
10003932:	4903      	ldr	r1, [pc, #12]	; (10003940 <pxPortInitialiseStack+0x1c>)
10003934:	3b04      	subs	r3, #4
10003936:	6019      	str	r1, [r3, #0]
10003938:	3b14      	subs	r3, #20
1000393a:	3840      	subs	r0, #64	; 0x40
1000393c:	601a      	str	r2, [r3, #0]
1000393e:	bd10      	pop	{r4, pc}
10003940:	100038e1 	.word	0x100038e1

10003944 <isr_svcall>:
10003944:	4770      	bx	lr
10003946:	46c0      	nop			; (mov r8, r8)

10003948 <vPortEndScheduler>:
10003948:	4770      	bx	lr
1000394a:	46c0      	nop			; (mov r8, r8)

1000394c <vPortYield>:
1000394c:	2280      	movs	r2, #128	; 0x80
1000394e:	4b04      	ldr	r3, [pc, #16]	; (10003960 <vPortYield+0x14>)
10003950:	0552      	lsls	r2, r2, #21
10003952:	601a      	str	r2, [r3, #0]
10003954:	f3bf 8f4f 	dsb	sy
10003958:	f3bf 8f6f 	isb	sy
1000395c:	4770      	bx	lr
1000395e:	46c0      	nop			; (mov r8, r8)
10003960:	e000ed04 	.word	0xe000ed04

10003964 <vPortEnterCritical>:
10003964:	b672      	cpsid	i
10003966:	4a04      	ldr	r2, [pc, #16]	; (10003978 <vPortEnterCritical+0x14>)
10003968:	6813      	ldr	r3, [r2, #0]
1000396a:	3301      	adds	r3, #1
1000396c:	6013      	str	r3, [r2, #0]
1000396e:	f3bf 8f4f 	dsb	sy
10003972:	f3bf 8f6f 	isb	sy
10003976:	4770      	bx	lr
10003978:	20000228 	.word	0x20000228

1000397c <vPortExitCritical>:
1000397c:	4a03      	ldr	r2, [pc, #12]	; (1000398c <vPortExitCritical+0x10>)
1000397e:	6813      	ldr	r3, [r2, #0]
10003980:	3b01      	subs	r3, #1
10003982:	6013      	str	r3, [r2, #0]
10003984:	2b00      	cmp	r3, #0
10003986:	d100      	bne.n	1000398a <vPortExitCritical+0xe>
10003988:	b662      	cpsie	i
1000398a:	4770      	bx	lr
1000398c:	20000228 	.word	0x20000228

10003990 <ulSetInterruptMaskFromISR>:
10003990:	f3ef 8010 	mrs	r0, PRIMASK
10003994:	b672      	cpsid	i
10003996:	4770      	bx	lr

10003998 <vClearInterruptMaskFromISR>:
10003998:	f380 8810 	msr	PRIMASK, r0
1000399c:	4770      	bx	lr
1000399e:	46c0      	nop			; (mov r8, r8)

100039a0 <isr_pendsv>:
100039a0:	f3ef 8009 	mrs	r0, PSP
100039a4:	4b0e      	ldr	r3, [pc, #56]	; (100039e0 <pxCurrentTCBConst>)
100039a6:	681a      	ldr	r2, [r3, #0]
100039a8:	3820      	subs	r0, #32
100039aa:	6010      	str	r0, [r2, #0]
100039ac:	c0f0      	stmia	r0!, {r4, r5, r6, r7}
100039ae:	4644      	mov	r4, r8
100039b0:	464d      	mov	r5, r9
100039b2:	4656      	mov	r6, sl
100039b4:	465f      	mov	r7, fp
100039b6:	c0f0      	stmia	r0!, {r4, r5, r6, r7}
100039b8:	b508      	push	{r3, lr}
100039ba:	b672      	cpsid	i
100039bc:	f7ff f856 	bl	10002a6c <vTaskSwitchContext>
100039c0:	b662      	cpsie	i
100039c2:	bc0c      	pop	{r2, r3}
100039c4:	6811      	ldr	r1, [r2, #0]
100039c6:	6808      	ldr	r0, [r1, #0]
100039c8:	3010      	adds	r0, #16
100039ca:	c8f0      	ldmia	r0!, {r4, r5, r6, r7}
100039cc:	46a0      	mov	r8, r4
100039ce:	46a9      	mov	r9, r5
100039d0:	46b2      	mov	sl, r6
100039d2:	46bb      	mov	fp, r7
100039d4:	f380 8809 	msr	PSP, r0
100039d8:	3820      	subs	r0, #32
100039da:	c8f0      	ldmia	r0!, {r4, r5, r6, r7}
100039dc:	4718      	bx	r3
100039de:	46c0      	nop			; (mov r8, r8)

100039e0 <pxCurrentTCBConst>:
100039e0:	200003d4 	.word	0x200003d4

100039e4 <isr_systick>:
100039e4:	b510      	push	{r4, lr}
100039e6:	f7ff ffd3 	bl	10003990 <ulSetInterruptMaskFromISR>
100039ea:	0004      	movs	r4, r0
100039ec:	f7ff f82e 	bl	10002a4c <xTaskIncrementTick>
100039f0:	2800      	cmp	r0, #0
100039f2:	d003      	beq.n	100039fc <isr_systick+0x18>
100039f4:	2280      	movs	r2, #128	; 0x80
100039f6:	4b03      	ldr	r3, [pc, #12]	; (10003a04 <isr_systick+0x20>)
100039f8:	0552      	lsls	r2, r2, #21
100039fa:	601a      	str	r2, [r3, #0]
100039fc:	0020      	movs	r0, r4
100039fe:	f7ff ffcb 	bl	10003998 <vClearInterruptMaskFromISR>
10003a02:	bd10      	pop	{r4, pc}
10003a04:	e000ed04 	.word	0xe000ed04

10003a08 <vPortSetupTimerInterrupt>:
10003a08:	2200      	movs	r2, #0
10003a0a:	4b05      	ldr	r3, [pc, #20]	; (10003a20 <vPortSetupTimerInterrupt+0x18>)
10003a0c:	4905      	ldr	r1, [pc, #20]	; (10003a24 <vPortSetupTimerInterrupt+0x1c>)
10003a0e:	601a      	str	r2, [r3, #0]
10003a10:	600a      	str	r2, [r1, #0]
10003a12:	4a05      	ldr	r2, [pc, #20]	; (10003a28 <vPortSetupTimerInterrupt+0x20>)
10003a14:	4905      	ldr	r1, [pc, #20]	; (10003a2c <vPortSetupTimerInterrupt+0x24>)
10003a16:	6011      	str	r1, [r2, #0]
10003a18:	2203      	movs	r2, #3
10003a1a:	601a      	str	r2, [r3, #0]
10003a1c:	4770      	bx	lr
10003a1e:	46c0      	nop			; (mov r8, r8)
10003a20:	e000e010 	.word	0xe000e010
10003a24:	e000e018 	.word	0xe000e018
10003a28:	e000e014 	.word	0xe000e014
10003a2c:	000003e7 	.word	0x000003e7

10003a30 <xPortStartScheduler>:
10003a30:	22ff      	movs	r2, #255	; 0xff
10003a32:	4b0e      	ldr	r3, [pc, #56]	; (10003a6c <xPortStartScheduler+0x3c>)
10003a34:	0412      	lsls	r2, r2, #16
10003a36:	6819      	ldr	r1, [r3, #0]
10003a38:	b510      	push	{r4, lr}
10003a3a:	430a      	orrs	r2, r1
10003a3c:	601a      	str	r2, [r3, #0]
10003a3e:	22ff      	movs	r2, #255	; 0xff
10003a40:	2400      	movs	r4, #0
10003a42:	6819      	ldr	r1, [r3, #0]
10003a44:	0612      	lsls	r2, r2, #24
10003a46:	430a      	orrs	r2, r1
10003a48:	b082      	sub	sp, #8
10003a4a:	601a      	str	r2, [r3, #0]
10003a4c:	f7ff ffdc 	bl	10003a08 <vPortSetupTimerInterrupt>
10003a50:	4b07      	ldr	r3, [pc, #28]	; (10003a70 <xPortStartScheduler+0x40>)
10003a52:	601c      	str	r4, [r3, #0]
10003a54:	f7ff ff4e 	bl	100038f4 <vPortStartFirstTask>
10003a58:	f7ff f808 	bl	10002a6c <vTaskSwitchContext>
10003a5c:	9401      	str	r4, [sp, #4]
10003a5e:	b672      	cpsid	i
10003a60:	9b01      	ldr	r3, [sp, #4]
10003a62:	2b00      	cmp	r3, #0
10003a64:	d0fc      	beq.n	10003a60 <xPortStartScheduler+0x30>
10003a66:	2000      	movs	r0, #0
10003a68:	b002      	add	sp, #8
10003a6a:	bd10      	pop	{r4, pc}
10003a6c:	e000ed20 	.word	0xe000ed20
10003a70:	20000228 	.word	0x20000228

10003a74 <pvPortMalloc>:
10003a74:	b5f8      	push	{r3, r4, r5, r6, r7, lr}
10003a76:	46ce      	mov	lr, r9
10003a78:	4647      	mov	r7, r8
10003a7a:	b580      	push	{r7, lr}
10003a7c:	0004      	movs	r4, r0
10003a7e:	f7fe fea3 	bl	100027c8 <vTaskSuspendAll>
10003a82:	4d45      	ldr	r5, [pc, #276]	; (10003b98 <pvPortMalloc+0x124>)
10003a84:	68ae      	ldr	r6, [r5, #8]
10003a86:	2e00      	cmp	r6, #0
10003a88:	d03b      	beq.n	10003b02 <pvPortMalloc+0x8e>
10003a8a:	2700      	movs	r7, #0
10003a8c:	2c00      	cmp	r4, #0
10003a8e:	d031      	beq.n	10003af4 <pvPortMalloc+0x80>
10003a90:	2307      	movs	r3, #7
10003a92:	2010      	movs	r0, #16
10003a94:	4023      	ands	r3, r4
10003a96:	1ac0      	subs	r0, r0, r3
10003a98:	43c3      	mvns	r3, r0
10003a9a:	42a3      	cmp	r3, r4
10003a9c:	d32a      	bcc.n	10003af4 <pvPortMalloc+0x80>
10003a9e:	1820      	adds	r0, r4, r0
10003aa0:	2800      	cmp	r0, #0
10003aa2:	dd27      	ble.n	10003af4 <pvPortMalloc+0x80>
10003aa4:	692b      	ldr	r3, [r5, #16]
10003aa6:	469c      	mov	ip, r3
10003aa8:	4283      	cmp	r3, r0
10003aaa:	d323      	bcc.n	10003af4 <pvPortMalloc+0x80>
10003aac:	002c      	movs	r4, r5
10003aae:	682b      	ldr	r3, [r5, #0]
10003ab0:	e004      	b.n	10003abc <pvPortMalloc+0x48>
10003ab2:	681a      	ldr	r2, [r3, #0]
10003ab4:	2a00      	cmp	r2, #0
10003ab6:	d004      	beq.n	10003ac2 <pvPortMalloc+0x4e>
10003ab8:	001c      	movs	r4, r3
10003aba:	0013      	movs	r3, r2
10003abc:	6859      	ldr	r1, [r3, #4]
10003abe:	4281      	cmp	r1, r0
10003ac0:	d3f7      	bcc.n	10003ab2 <pvPortMalloc+0x3e>
10003ac2:	42b3      	cmp	r3, r6
10003ac4:	d056      	beq.n	10003b74 <pvPortMalloc+0x100>
10003ac6:	001f      	movs	r7, r3
10003ac8:	681a      	ldr	r2, [r3, #0]
10003aca:	3708      	adds	r7, #8
10003acc:	6022      	str	r2, [r4, #0]
10003ace:	1a0a      	subs	r2, r1, r0
10003ad0:	2a10      	cmp	r2, #16
10003ad2:	d833      	bhi.n	10003b3c <pvPortMalloc+0xc8>
10003ad4:	4662      	mov	r2, ip
10003ad6:	68e8      	ldr	r0, [r5, #12]
10003ad8:	1a52      	subs	r2, r2, r1
10003ada:	612a      	str	r2, [r5, #16]
10003adc:	4282      	cmp	r2, r0
10003ade:	d200      	bcs.n	10003ae2 <pvPortMalloc+0x6e>
10003ae0:	60ea      	str	r2, [r5, #12]
10003ae2:	2280      	movs	r2, #128	; 0x80
10003ae4:	0612      	lsls	r2, r2, #24
10003ae6:	4311      	orrs	r1, r2
10003ae8:	2200      	movs	r2, #0
10003aea:	6059      	str	r1, [r3, #4]
10003aec:	601a      	str	r2, [r3, #0]
10003aee:	696b      	ldr	r3, [r5, #20]
10003af0:	3301      	adds	r3, #1
10003af2:	616b      	str	r3, [r5, #20]
10003af4:	f7fe fe70 	bl	100027d8 <xTaskResumeAll>
10003af8:	0038      	movs	r0, r7
10003afa:	bc0c      	pop	{r2, r3}
10003afc:	4690      	mov	r8, r2
10003afe:	4699      	mov	r9, r3
10003b00:	bdf8      	pop	{r3, r4, r5, r6, r7, pc}
10003b02:	2107      	movs	r1, #7
10003b04:	4a25      	ldr	r2, [pc, #148]	; (10003b9c <pvPortMalloc+0x128>)
10003b06:	4211      	tst	r1, r2
10003b08:	d112      	bne.n	10003b30 <pvPortMalloc+0xbc>
10003b0a:	4b25      	ldr	r3, [pc, #148]	; (10003ba0 <pvPortMalloc+0x12c>)
10003b0c:	0011      	movs	r1, r2
10003b0e:	18d6      	adds	r6, r2, r3
10003b10:	0013      	movs	r3, r2
10003b12:	2007      	movs	r0, #7
10003b14:	2200      	movs	r2, #0
10003b16:	3e08      	subs	r6, #8
10003b18:	4386      	bics	r6, r0
10003b1a:	1af3      	subs	r3, r6, r3
10003b1c:	606a      	str	r2, [r5, #4]
10003b1e:	6029      	str	r1, [r5, #0]
10003b20:	6072      	str	r2, [r6, #4]
10003b22:	6032      	str	r2, [r6, #0]
10003b24:	60ae      	str	r6, [r5, #8]
10003b26:	604b      	str	r3, [r1, #4]
10003b28:	600e      	str	r6, [r1, #0]
10003b2a:	60eb      	str	r3, [r5, #12]
10003b2c:	612b      	str	r3, [r5, #16]
10003b2e:	e7ac      	b.n	10003a8a <pvPortMalloc+0x16>
10003b30:	1dd3      	adds	r3, r2, #7
10003b32:	438b      	bics	r3, r1
10003b34:	491a      	ldr	r1, [pc, #104]	; (10003ba0 <pvPortMalloc+0x12c>)
10003b36:	1856      	adds	r6, r2, r1
10003b38:	0019      	movs	r1, r3
10003b3a:	e7ea      	b.n	10003b12 <pvPortMalloc+0x9e>
10003b3c:	1819      	adds	r1, r3, r0
10003b3e:	604a      	str	r2, [r1, #4]
10003b40:	4689      	mov	r9, r1
10003b42:	002a      	movs	r2, r5
10003b44:	6058      	str	r0, [r3, #4]
10003b46:	0010      	movs	r0, r2
10003b48:	6812      	ldr	r2, [r2, #0]
10003b4a:	4591      	cmp	r9, r2
10003b4c:	d8fb      	bhi.n	10003b46 <pvPortMalloc+0xd2>
10003b4e:	6844      	ldr	r4, [r0, #4]
10003b50:	1901      	adds	r1, r0, r4
10003b52:	4688      	mov	r8, r1
10003b54:	4649      	mov	r1, r9
10003b56:	45c1      	cmp	r9, r8
10003b58:	d00e      	beq.n	10003b78 <pvPortMalloc+0x104>
10003b5a:	684c      	ldr	r4, [r1, #4]
10003b5c:	4649      	mov	r1, r9
10003b5e:	1909      	adds	r1, r1, r4
10003b60:	428a      	cmp	r2, r1
10003b62:	d00e      	beq.n	10003b82 <pvPortMalloc+0x10e>
10003b64:	4649      	mov	r1, r9
10003b66:	600a      	str	r2, [r1, #0]
10003b68:	4548      	cmp	r0, r9
10003b6a:	d001      	beq.n	10003b70 <pvPortMalloc+0xfc>
10003b6c:	464a      	mov	r2, r9
10003b6e:	6002      	str	r2, [r0, #0]
10003b70:	6859      	ldr	r1, [r3, #4]
10003b72:	e7af      	b.n	10003ad4 <pvPortMalloc+0x60>
10003b74:	2700      	movs	r7, #0
10003b76:	e7bd      	b.n	10003af4 <pvPortMalloc+0x80>
10003b78:	6849      	ldr	r1, [r1, #4]
10003b7a:	4681      	mov	r9, r0
10003b7c:	1864      	adds	r4, r4, r1
10003b7e:	6044      	str	r4, [r0, #4]
10003b80:	e7ec      	b.n	10003b5c <pvPortMalloc+0xe8>
10003b82:	42b2      	cmp	r2, r6
10003b84:	d0ee      	beq.n	10003b64 <pvPortMalloc+0xf0>
10003b86:	6851      	ldr	r1, [r2, #4]
10003b88:	6812      	ldr	r2, [r2, #0]
10003b8a:	4688      	mov	r8, r1
10003b8c:	4649      	mov	r1, r9
10003b8e:	4444      	add	r4, r8
10003b90:	604c      	str	r4, [r1, #4]
10003b92:	600a      	str	r2, [r1, #0]
10003b94:	e7e8      	b.n	10003b68 <pvPortMalloc+0xf4>
10003b96:	46c0      	nop			; (mov r8, r8)
10003b98:	20000490 	.word	0x20000490
10003b9c:	200004ac 	.word	0x200004ac
10003ba0:	0000c350 	.word	0x0000c350

10003ba4 <vPortFree>:
10003ba4:	b5f8      	push	{r3, r4, r5, r6, r7, lr}
10003ba6:	2800      	cmp	r0, #0
10003ba8:	d007      	beq.n	10003bba <vPortFree+0x16>
10003baa:	3808      	subs	r0, #8
10003bac:	6843      	ldr	r3, [r0, #4]
10003bae:	0004      	movs	r4, r0
10003bb0:	2b00      	cmp	r3, #0
10003bb2:	da02      	bge.n	10003bba <vPortFree+0x16>
10003bb4:	6802      	ldr	r2, [r0, #0]
10003bb6:	2a00      	cmp	r2, #0
10003bb8:	d000      	beq.n	10003bbc <vPortFree+0x18>
10003bba:	bdf8      	pop	{r3, r4, r5, r6, r7, pc}
10003bbc:	005b      	lsls	r3, r3, #1
10003bbe:	085b      	lsrs	r3, r3, #1
10003bc0:	6043      	str	r3, [r0, #4]
10003bc2:	0005      	movs	r5, r0
10003bc4:	f7fe fe00 	bl	100027c8 <vTaskSuspendAll>
10003bc8:	4914      	ldr	r1, [pc, #80]	; (10003c1c <vPortFree+0x78>)
10003bca:	6860      	ldr	r0, [r4, #4]
10003bcc:	690b      	ldr	r3, [r1, #16]
10003bce:	181b      	adds	r3, r3, r0
10003bd0:	610b      	str	r3, [r1, #16]
10003bd2:	000b      	movs	r3, r1
10003bd4:	001a      	movs	r2, r3
10003bd6:	681b      	ldr	r3, [r3, #0]
10003bd8:	429c      	cmp	r4, r3
10003bda:	d8fb      	bhi.n	10003bd4 <vPortFree+0x30>
10003bdc:	6856      	ldr	r6, [r2, #4]
10003bde:	1997      	adds	r7, r2, r6
10003be0:	42bc      	cmp	r4, r7
10003be2:	d016      	beq.n	10003c12 <vPortFree+0x6e>
10003be4:	182c      	adds	r4, r5, r0
10003be6:	42a3      	cmp	r3, r4
10003be8:	d009      	beq.n	10003bfe <vPortFree+0x5a>
10003bea:	602b      	str	r3, [r5, #0]
10003bec:	42aa      	cmp	r2, r5
10003bee:	d000      	beq.n	10003bf2 <vPortFree+0x4e>
10003bf0:	6015      	str	r5, [r2, #0]
10003bf2:	698b      	ldr	r3, [r1, #24]
10003bf4:	3301      	adds	r3, #1
10003bf6:	618b      	str	r3, [r1, #24]
10003bf8:	f7fe fdee 	bl	100027d8 <xTaskResumeAll>
10003bfc:	e7dd      	b.n	10003bba <vPortFree+0x16>
10003bfe:	688c      	ldr	r4, [r1, #8]
10003c00:	42a3      	cmp	r3, r4
10003c02:	d0f2      	beq.n	10003bea <vPortFree+0x46>
10003c04:	685c      	ldr	r4, [r3, #4]
10003c06:	681b      	ldr	r3, [r3, #0]
10003c08:	46a4      	mov	ip, r4
10003c0a:	4460      	add	r0, ip
10003c0c:	6068      	str	r0, [r5, #4]
10003c0e:	602b      	str	r3, [r5, #0]
10003c10:	e7ec      	b.n	10003bec <vPortFree+0x48>
10003c12:	1980      	adds	r0, r0, r6
10003c14:	0015      	movs	r5, r2
10003c16:	6050      	str	r0, [r2, #4]
10003c18:	e7e4      	b.n	10003be4 <vPortFree+0x40>
10003c1a:	46c0      	nop			; (mov r8, r8)
10003c1c:	20000490 	.word	0x20000490

10003c20 <xPortGetFreeHeapSize>:
10003c20:	4b01      	ldr	r3, [pc, #4]	; (10003c28 <xPortGetFreeHeapSize+0x8>)
10003c22:	6918      	ldr	r0, [r3, #16]
10003c24:	4770      	bx	lr
10003c26:	46c0      	nop			; (mov r8, r8)
10003c28:	20000490 	.word	0x20000490

10003c2c <xPortGetMinimumEverFreeHeapSize>:
10003c2c:	4b01      	ldr	r3, [pc, #4]	; (10003c34 <xPortGetMinimumEverFreeHeapSize+0x8>)
10003c2e:	68d8      	ldr	r0, [r3, #12]
10003c30:	4770      	bx	lr
10003c32:	46c0      	nop			; (mov r8, r8)
10003c34:	20000490 	.word	0x20000490

10003c38 <vPortInitialiseBlocks>:
10003c38:	4770      	bx	lr
10003c3a:	46c0      	nop			; (mov r8, r8)

10003c3c <pvPortCalloc>:
10003c3c:	b570      	push	{r4, r5, r6, lr}
10003c3e:	1e04      	subs	r4, r0, #0
10003c40:	d006      	beq.n	10003c50 <pvPortCalloc+0x14>
10003c42:	0c0b      	lsrs	r3, r1, #16
10003c44:	0c02      	lsrs	r2, r0, #16
10003c46:	2b00      	cmp	r3, #0
10003c48:	d10e      	bne.n	10003c68 <pvPortCalloc+0x2c>
10003c4a:	1c0d      	adds	r5, r1, #0
10003c4c:	2a00      	cmp	r2, #0
10003c4e:	d10f      	bne.n	10003c70 <pvPortCalloc+0x34>
10003c50:	434c      	muls	r4, r1
10003c52:	0020      	movs	r0, r4
10003c54:	f7ff ff0e 	bl	10003a74 <pvPortMalloc>
10003c58:	1e05      	subs	r5, r0, #0
10003c5a:	d003      	beq.n	10003c64 <pvPortCalloc+0x28>
10003c5c:	0022      	movs	r2, r4
10003c5e:	2100      	movs	r1, #0
10003c60:	f7fd ff08 	bl	10001a74 <__wrap_memset>
10003c64:	0028      	movs	r0, r5
10003c66:	bd70      	pop	{r4, r5, r6, pc}
10003c68:	2a00      	cmp	r2, #0
10003c6a:	d10b      	bne.n	10003c84 <pvPortCalloc+0x48>
10003c6c:	1c1a      	adds	r2, r3, #0
10003c6e:	1c25      	adds	r5, r4, #0
10003c70:	b28b      	uxth	r3, r1
10003c72:	b2a0      	uxth	r0, r4
10003c74:	4358      	muls	r0, r3
10003c76:	b2ad      	uxth	r5, r5
10003c78:	b293      	uxth	r3, r2
10003c7a:	436b      	muls	r3, r5
10003c7c:	0c00      	lsrs	r0, r0, #16
10003c7e:	181b      	adds	r3, r3, r0
10003c80:	0c1b      	lsrs	r3, r3, #16
10003c82:	d0e5      	beq.n	10003c50 <pvPortCalloc+0x14>
10003c84:	2500      	movs	r5, #0
10003c86:	e7ed      	b.n	10003c64 <pvPortCalloc+0x28>

10003c88 <vPortGetHeapStats>:
10003c88:	b5f0      	push	{r4, r5, r6, r7, lr}
10003c8a:	46c6      	mov	lr, r8
10003c8c:	b500      	push	{lr}
10003c8e:	0007      	movs	r7, r0
10003c90:	f7fe fd9a 	bl	100027c8 <vTaskSuspendAll>
10003c94:	4b19      	ldr	r3, [pc, #100]	; (10003cfc <vPortGetHeapStats+0x74>)
10003c96:	4698      	mov	r8, r3
10003c98:	681b      	ldr	r3, [r3, #0]
10003c9a:	2b00      	cmp	r3, #0
10003c9c:	d028      	beq.n	10003cf0 <vPortGetHeapStats+0x68>
10003c9e:	4642      	mov	r2, r8
10003ca0:	2501      	movs	r5, #1
10003ca2:	2600      	movs	r6, #0
10003ca4:	2400      	movs	r4, #0
10003ca6:	6891      	ldr	r1, [r2, #8]
10003ca8:	426d      	negs	r5, r5
10003caa:	685a      	ldr	r2, [r3, #4]
10003cac:	3401      	adds	r4, #1
10003cae:	4296      	cmp	r6, r2
10003cb0:	d200      	bcs.n	10003cb4 <vPortGetHeapStats+0x2c>
10003cb2:	0016      	movs	r6, r2
10003cb4:	4295      	cmp	r5, r2
10003cb6:	d900      	bls.n	10003cba <vPortGetHeapStats+0x32>
10003cb8:	0015      	movs	r5, r2
10003cba:	681b      	ldr	r3, [r3, #0]
10003cbc:	4299      	cmp	r1, r3
10003cbe:	d1f4      	bne.n	10003caa <vPortGetHeapStats+0x22>
10003cc0:	f7fe fd8a 	bl	100027d8 <xTaskResumeAll>
10003cc4:	607e      	str	r6, [r7, #4]
10003cc6:	60bd      	str	r5, [r7, #8]
10003cc8:	60fc      	str	r4, [r7, #12]
10003cca:	f7ff fe4b 	bl	10003964 <vPortEnterCritical>
10003cce:	4643      	mov	r3, r8
10003cd0:	691b      	ldr	r3, [r3, #16]
10003cd2:	603b      	str	r3, [r7, #0]
10003cd4:	4643      	mov	r3, r8
10003cd6:	695b      	ldr	r3, [r3, #20]
10003cd8:	617b      	str	r3, [r7, #20]
10003cda:	4643      	mov	r3, r8
10003cdc:	699b      	ldr	r3, [r3, #24]
10003cde:	61bb      	str	r3, [r7, #24]
10003ce0:	4643      	mov	r3, r8
10003ce2:	68db      	ldr	r3, [r3, #12]
10003ce4:	613b      	str	r3, [r7, #16]
10003ce6:	f7ff fe49 	bl	1000397c <vPortExitCritical>
10003cea:	bc04      	pop	{r2}
10003cec:	4690      	mov	r8, r2
10003cee:	bdf0      	pop	{r4, r5, r6, r7, pc}
10003cf0:	2501      	movs	r5, #1
10003cf2:	2600      	movs	r6, #0
10003cf4:	2400      	movs	r4, #0
10003cf6:	426d      	negs	r5, r5
10003cf8:	e7e2      	b.n	10003cc0 <vPortGetHeapStats+0x38>
10003cfa:	46c0      	nop			; (mov r8, r8)
10003cfc:	20000490 	.word	0x20000490

10003d00 <vListInitialise>:
10003d00:	0003      	movs	r3, r0
10003d02:	2201      	movs	r2, #1
10003d04:	3308      	adds	r3, #8
10003d06:	6043      	str	r3, [r0, #4]
10003d08:	60c3      	str	r3, [r0, #12]
10003d0a:	6103      	str	r3, [r0, #16]
10003d0c:	2300      	movs	r3, #0
10003d0e:	4252      	negs	r2, r2
10003d10:	6082      	str	r2, [r0, #8]
10003d12:	6003      	str	r3, [r0, #0]
10003d14:	4770      	bx	lr
10003d16:	46c0      	nop			; (mov r8, r8)

10003d18 <vListInitialiseItem>:
10003d18:	2300      	movs	r3, #0
10003d1a:	6103      	str	r3, [r0, #16]
10003d1c:	4770      	bx	lr
10003d1e:	46c0      	nop			; (mov r8, r8)

10003d20 <vListInsertEnd>:
10003d20:	6843      	ldr	r3, [r0, #4]
10003d22:	689a      	ldr	r2, [r3, #8]
10003d24:	604b      	str	r3, [r1, #4]
10003d26:	608a      	str	r2, [r1, #8]
10003d28:	689a      	ldr	r2, [r3, #8]
10003d2a:	6051      	str	r1, [r2, #4]
10003d2c:	6099      	str	r1, [r3, #8]
10003d2e:	6803      	ldr	r3, [r0, #0]
10003d30:	6108      	str	r0, [r1, #16]
10003d32:	3301      	adds	r3, #1
10003d34:	6003      	str	r3, [r0, #0]
10003d36:	4770      	bx	lr

10003d38 <vListInsert>:
10003d38:	0003      	movs	r3, r0
10003d3a:	b530      	push	{r4, r5, lr}
10003d3c:	680c      	ldr	r4, [r1, #0]
10003d3e:	3308      	adds	r3, #8
10003d40:	1c62      	adds	r2, r4, #1
10003d42:	d00d      	beq.n	10003d60 <vListInsert+0x28>
10003d44:	001a      	movs	r2, r3
10003d46:	685b      	ldr	r3, [r3, #4]
10003d48:	681d      	ldr	r5, [r3, #0]
10003d4a:	42a5      	cmp	r5, r4
10003d4c:	d9fa      	bls.n	10003d44 <vListInsert+0xc>
10003d4e:	604b      	str	r3, [r1, #4]
10003d50:	6099      	str	r1, [r3, #8]
10003d52:	6803      	ldr	r3, [r0, #0]
10003d54:	608a      	str	r2, [r1, #8]
10003d56:	3301      	adds	r3, #1
10003d58:	6051      	str	r1, [r2, #4]
10003d5a:	6108      	str	r0, [r1, #16]
10003d5c:	6003      	str	r3, [r0, #0]
10003d5e:	bd30      	pop	{r4, r5, pc}
10003d60:	6902      	ldr	r2, [r0, #16]
10003d62:	6853      	ldr	r3, [r2, #4]
10003d64:	e7f3      	b.n	10003d4e <vListInsert+0x16>
10003d66:	46c0      	nop			; (mov r8, r8)

10003d68 <uxListRemove>:
10003d68:	6903      	ldr	r3, [r0, #16]
10003d6a:	6841      	ldr	r1, [r0, #4]
10003d6c:	6882      	ldr	r2, [r0, #8]
10003d6e:	608a      	str	r2, [r1, #8]
10003d70:	6051      	str	r1, [r2, #4]
10003d72:	6859      	ldr	r1, [r3, #4]
10003d74:	4281      	cmp	r1, r0
10003d76:	d006      	beq.n	10003d86 <uxListRemove+0x1e>
10003d78:	2200      	movs	r2, #0
10003d7a:	6102      	str	r2, [r0, #16]
10003d7c:	681a      	ldr	r2, [r3, #0]
10003d7e:	3a01      	subs	r2, #1
10003d80:	601a      	str	r2, [r3, #0]
10003d82:	6818      	ldr	r0, [r3, #0]
10003d84:	4770      	bx	lr
10003d86:	605a      	str	r2, [r3, #4]
10003d88:	e7f6      	b.n	10003d78 <uxListRemove+0x10>
10003d8a:	46c0      	nop			; (mov r8, r8)

10003d8c <xQueueGenericReset>:
10003d8c:	b570      	push	{r4, r5, r6, lr}
10003d8e:	0004      	movs	r4, r0
10003d90:	000d      	movs	r5, r1
10003d92:	2800      	cmp	r0, #0
10003d94:	d032      	beq.n	10003dfc <xQueueGenericReset+0x70>
10003d96:	6bc3      	ldr	r3, [r0, #60]	; 0x3c
10003d98:	2000      	movs	r0, #0
10003d9a:	2b00      	cmp	r3, #0
10003d9c:	d020      	beq.n	10003de0 <xQueueGenericReset+0x54>
10003d9e:	6c21      	ldr	r1, [r4, #64]	; 0x40
10003da0:	0c18      	lsrs	r0, r3, #16
10003da2:	0c0a      	lsrs	r2, r1, #16
10003da4:	d11d      	bne.n	10003de2 <xQueueGenericReset+0x56>
10003da6:	2800      	cmp	r0, #0
10003da8:	d12a      	bne.n	10003e00 <xQueueGenericReset+0x74>
10003daa:	f7ff fddb 	bl	10003964 <vPortEnterCritical>
10003dae:	6c21      	ldr	r1, [r4, #64]	; 0x40
10003db0:	6be3      	ldr	r3, [r4, #60]	; 0x3c
10003db2:	6822      	ldr	r2, [r4, #0]
10003db4:	434b      	muls	r3, r1
10003db6:	18d0      	adds	r0, r2, r3
10003db8:	1a5b      	subs	r3, r3, r1
10003dba:	18d3      	adds	r3, r2, r3
10003dbc:	60a0      	str	r0, [r4, #8]
10003dbe:	6062      	str	r2, [r4, #4]
10003dc0:	60e3      	str	r3, [r4, #12]
10003dc2:	2244      	movs	r2, #68	; 0x44
10003dc4:	23ff      	movs	r3, #255	; 0xff
10003dc6:	2000      	movs	r0, #0
10003dc8:	63a0      	str	r0, [r4, #56]	; 0x38
10003dca:	54a3      	strb	r3, [r4, r2]
10003dcc:	3201      	adds	r2, #1
10003dce:	54a3      	strb	r3, [r4, r2]
10003dd0:	2d00      	cmp	r5, #0
10003dd2:	d118      	bne.n	10003e06 <xQueueGenericReset+0x7a>
10003dd4:	6923      	ldr	r3, [r4, #16]
10003dd6:	2b00      	cmp	r3, #0
10003dd8:	d11e      	bne.n	10003e18 <xQueueGenericReset+0x8c>
10003dda:	f7ff fdcf 	bl	1000397c <vPortExitCritical>
10003dde:	2001      	movs	r0, #1
10003de0:	bd70      	pop	{r4, r5, r6, pc}
10003de2:	2800      	cmp	r0, #0
10003de4:	d10a      	bne.n	10003dfc <xQueueGenericReset+0x70>
10003de6:	1c18      	adds	r0, r3, #0
10003de8:	b289      	uxth	r1, r1
10003dea:	b29b      	uxth	r3, r3
10003dec:	434b      	muls	r3, r1
10003dee:	b280      	uxth	r0, r0
10003df0:	b292      	uxth	r2, r2
10003df2:	4342      	muls	r2, r0
10003df4:	0c1b      	lsrs	r3, r3, #16
10003df6:	18d3      	adds	r3, r2, r3
10003df8:	0c1b      	lsrs	r3, r3, #16
10003dfa:	d0d6      	beq.n	10003daa <xQueueGenericReset+0x1e>
10003dfc:	2000      	movs	r0, #0
10003dfe:	e7ef      	b.n	10003de0 <xQueueGenericReset+0x54>
10003e00:	1c02      	adds	r2, r0, #0
10003e02:	1c08      	adds	r0, r1, #0
10003e04:	e7f0      	b.n	10003de8 <xQueueGenericReset+0x5c>
10003e06:	0020      	movs	r0, r4
10003e08:	3010      	adds	r0, #16
10003e0a:	f7ff ff79 	bl	10003d00 <vListInitialise>
10003e0e:	0020      	movs	r0, r4
10003e10:	3024      	adds	r0, #36	; 0x24
10003e12:	f7ff ff75 	bl	10003d00 <vListInitialise>
10003e16:	e7e0      	b.n	10003dda <xQueueGenericReset+0x4e>
10003e18:	0020      	movs	r0, r4
10003e1a:	3010      	adds	r0, #16
10003e1c:	f7fe ff50 	bl	10002cc0 <xTaskRemoveFromEventList>
10003e20:	2800      	cmp	r0, #0
10003e22:	d0da      	beq.n	10003dda <xQueueGenericReset+0x4e>
10003e24:	f7ff fd92 	bl	1000394c <vPortYield>
10003e28:	e7d7      	b.n	10003dda <xQueueGenericReset+0x4e>
10003e2a:	46c0      	nop			; (mov r8, r8)

10003e2c <xQueueGenericCreate>:
10003e2c:	b570      	push	{r4, r5, r6, lr}
10003e2e:	0005      	movs	r5, r0
10003e30:	000e      	movs	r6, r1
10003e32:	2800      	cmp	r0, #0
10003e34:	d043      	beq.n	10003ebe <xQueueGenericCreate+0x92>
10003e36:	0c0b      	lsrs	r3, r1, #16
10003e38:	0c02      	lsrs	r2, r0, #16
10003e3a:	2b00      	cmp	r3, #0
10003e3c:	d131      	bne.n	10003ea2 <xQueueGenericCreate+0x76>
10003e3e:	1c33      	adds	r3, r6, #0
10003e40:	2a00      	cmp	r2, #0
10003e42:	d132      	bne.n	10003eaa <xQueueGenericCreate+0x7e>
10003e44:	0030      	movs	r0, r6
10003e46:	4368      	muls	r0, r5
10003e48:	0003      	movs	r3, r0
10003e4a:	3349      	adds	r3, #73	; 0x49
10003e4c:	d837      	bhi.n	10003ebe <xQueueGenericCreate+0x92>
10003e4e:	3048      	adds	r0, #72	; 0x48
10003e50:	f7ff fe10 	bl	10003a74 <pvPortMalloc>
10003e54:	1e04      	subs	r4, r0, #0
10003e56:	d032      	beq.n	10003ebe <xQueueGenericCreate+0x92>
10003e58:	0003      	movs	r3, r0
10003e5a:	2e00      	cmp	r6, #0
10003e5c:	d000      	beq.n	10003e60 <xQueueGenericCreate+0x34>
10003e5e:	3348      	adds	r3, #72	; 0x48
10003e60:	6023      	str	r3, [r4, #0]
10003e62:	63e5      	str	r5, [r4, #60]	; 0x3c
10003e64:	6426      	str	r6, [r4, #64]	; 0x40
10003e66:	f7ff fd7d 	bl	10003964 <vPortEnterCritical>
10003e6a:	6c21      	ldr	r1, [r4, #64]	; 0x40
10003e6c:	6be3      	ldr	r3, [r4, #60]	; 0x3c
10003e6e:	6822      	ldr	r2, [r4, #0]
10003e70:	434b      	muls	r3, r1
10003e72:	18d0      	adds	r0, r2, r3
10003e74:	60a0      	str	r0, [r4, #8]
10003e76:	2000      	movs	r0, #0
10003e78:	1a5b      	subs	r3, r3, r1
10003e7a:	18d3      	adds	r3, r2, r3
10003e7c:	6062      	str	r2, [r4, #4]
10003e7e:	60e3      	str	r3, [r4, #12]
10003e80:	2244      	movs	r2, #68	; 0x44
10003e82:	23ff      	movs	r3, #255	; 0xff
10003e84:	63a0      	str	r0, [r4, #56]	; 0x38
10003e86:	0020      	movs	r0, r4
10003e88:	54a3      	strb	r3, [r4, r2]
10003e8a:	3201      	adds	r2, #1
10003e8c:	54a3      	strb	r3, [r4, r2]
10003e8e:	3010      	adds	r0, #16
10003e90:	f7ff ff36 	bl	10003d00 <vListInitialise>
10003e94:	0020      	movs	r0, r4
10003e96:	3024      	adds	r0, #36	; 0x24
10003e98:	f7ff ff32 	bl	10003d00 <vListInitialise>
10003e9c:	f7ff fd6e 	bl	1000397c <vPortExitCritical>
10003ea0:	e00e      	b.n	10003ec0 <xQueueGenericCreate+0x94>
10003ea2:	2a00      	cmp	r2, #0
10003ea4:	d10b      	bne.n	10003ebe <xQueueGenericCreate+0x92>
10003ea6:	1c1a      	adds	r2, r3, #0
10003ea8:	1c03      	adds	r3, r0, #0
10003eaa:	b2b0      	uxth	r0, r6
10003eac:	b2a9      	uxth	r1, r5
10003eae:	4341      	muls	r1, r0
10003eb0:	b298      	uxth	r0, r3
10003eb2:	b293      	uxth	r3, r2
10003eb4:	4343      	muls	r3, r0
10003eb6:	0c09      	lsrs	r1, r1, #16
10003eb8:	185b      	adds	r3, r3, r1
10003eba:	0c1b      	lsrs	r3, r3, #16
10003ebc:	d0c2      	beq.n	10003e44 <xQueueGenericCreate+0x18>
10003ebe:	2400      	movs	r4, #0
10003ec0:	0020      	movs	r0, r4
10003ec2:	bd70      	pop	{r4, r5, r6, pc}

10003ec4 <xQueueGenericSend>:
10003ec4:	b5f0      	push	{r4, r5, r6, r7, lr}
10003ec6:	46d6      	mov	lr, sl
10003ec8:	4646      	mov	r6, r8
10003eca:	464f      	mov	r7, r9
10003ecc:	0004      	movs	r4, r0
10003ece:	b5c0      	push	{r6, r7, lr}
10003ed0:	0006      	movs	r6, r0
10003ed2:	b084      	sub	sp, #16
10003ed4:	469a      	mov	sl, r3
10003ed6:	9201      	str	r2, [sp, #4]
10003ed8:	4688      	mov	r8, r1
10003eda:	f7ff fd43 	bl	10003964 <vPortEnterCritical>
10003ede:	6ba3      	ldr	r3, [r4, #56]	; 0x38
10003ee0:	6be2      	ldr	r2, [r4, #60]	; 0x3c
10003ee2:	2500      	movs	r5, #0
10003ee4:	3624      	adds	r6, #36	; 0x24
10003ee6:	4293      	cmp	r3, r2
10003ee8:	d37d      	bcc.n	10003fe6 <xQueueGenericSend+0x122>
10003eea:	4653      	mov	r3, sl
10003eec:	2b02      	cmp	r3, #2
10003eee:	d100      	bne.n	10003ef2 <xQueueGenericSend+0x2e>
10003ef0:	e0e3      	b.n	100040ba <xQueueGenericSend+0x1f6>
10003ef2:	9b01      	ldr	r3, [sp, #4]
10003ef4:	2b00      	cmp	r3, #0
10003ef6:	d100      	bne.n	10003efa <xQueueGenericSend+0x36>
10003ef8:	e0fb      	b.n	100040f2 <xQueueGenericSend+0x22e>
10003efa:	2d00      	cmp	r5, #0
10003efc:	d100      	bne.n	10003f00 <xQueueGenericSend+0x3c>
10003efe:	e0d8      	b.n	100040b2 <xQueueGenericSend+0x1ee>
10003f00:	f7ff fd3c 	bl	1000397c <vPortExitCritical>
10003f04:	f7fe fc60 	bl	100027c8 <vTaskSuspendAll>
10003f08:	f7ff fd2c 	bl	10003964 <vPortEnterCritical>
10003f0c:	2244      	movs	r2, #68	; 0x44
10003f0e:	5ca3      	ldrb	r3, [r4, r2]
10003f10:	b25b      	sxtb	r3, r3
10003f12:	3301      	adds	r3, #1
10003f14:	d101      	bne.n	10003f1a <xQueueGenericSend+0x56>
10003f16:	2300      	movs	r3, #0
10003f18:	54a3      	strb	r3, [r4, r2]
10003f1a:	2245      	movs	r2, #69	; 0x45
10003f1c:	5ca3      	ldrb	r3, [r4, r2]
10003f1e:	b25b      	sxtb	r3, r3
10003f20:	3301      	adds	r3, #1
10003f22:	d101      	bne.n	10003f28 <xQueueGenericSend+0x64>
10003f24:	2300      	movs	r3, #0
10003f26:	54a3      	strb	r3, [r4, r2]
10003f28:	f7ff fd28 	bl	1000397c <vPortExitCritical>
10003f2c:	a901      	add	r1, sp, #4
10003f2e:	a802      	add	r0, sp, #8
10003f30:	f7fe ff96 	bl	10002e60 <xTaskCheckForTimeOut>
10003f34:	2800      	cmp	r0, #0
10003f36:	d000      	beq.n	10003f3a <xQueueGenericSend+0x76>
10003f38:	e0df      	b.n	100040fa <xQueueGenericSend+0x236>
10003f3a:	f7ff fd13 	bl	10003964 <vPortEnterCritical>
10003f3e:	6ba3      	ldr	r3, [r4, #56]	; 0x38
10003f40:	6be2      	ldr	r2, [r4, #60]	; 0x3c
10003f42:	4293      	cmp	r3, r2
10003f44:	d063      	beq.n	1000400e <xQueueGenericSend+0x14a>
10003f46:	f7ff fd19 	bl	1000397c <vPortExitCritical>
10003f4a:	f7ff fd0b 	bl	10003964 <vPortEnterCritical>
10003f4e:	2345      	movs	r3, #69	; 0x45
10003f50:	5ce5      	ldrb	r5, [r4, r3]
10003f52:	b26d      	sxtb	r5, r5
10003f54:	2d00      	cmp	r5, #0
10003f56:	dc05      	bgt.n	10003f64 <xQueueGenericSend+0xa0>
10003f58:	e013      	b.n	10003f82 <xQueueGenericSend+0xbe>
10003f5a:	3d01      	subs	r5, #1
10003f5c:	b2eb      	uxtb	r3, r5
10003f5e:	b26d      	sxtb	r5, r5
10003f60:	2b00      	cmp	r3, #0
10003f62:	d00e      	beq.n	10003f82 <xQueueGenericSend+0xbe>
10003f64:	6a63      	ldr	r3, [r4, #36]	; 0x24
10003f66:	2b00      	cmp	r3, #0
10003f68:	d00b      	beq.n	10003f82 <xQueueGenericSend+0xbe>
10003f6a:	0030      	movs	r0, r6
10003f6c:	f7fe fea8 	bl	10002cc0 <xTaskRemoveFromEventList>
10003f70:	2800      	cmp	r0, #0
10003f72:	d0f2      	beq.n	10003f5a <xQueueGenericSend+0x96>
10003f74:	3d01      	subs	r5, #1
10003f76:	f7fe ffa1 	bl	10002ebc <vTaskMissedYield>
10003f7a:	b2eb      	uxtb	r3, r5
10003f7c:	b26d      	sxtb	r5, r5
10003f7e:	2b00      	cmp	r3, #0
10003f80:	d1f0      	bne.n	10003f64 <xQueueGenericSend+0xa0>
10003f82:	2345      	movs	r3, #69	; 0x45
10003f84:	22ff      	movs	r2, #255	; 0xff
10003f86:	54e2      	strb	r2, [r4, r3]
10003f88:	f7ff fcf8 	bl	1000397c <vPortExitCritical>
10003f8c:	f7ff fcea 	bl	10003964 <vPortEnterCritical>
10003f90:	2344      	movs	r3, #68	; 0x44
10003f92:	5ce5      	ldrb	r5, [r4, r3]
10003f94:	3b34      	subs	r3, #52	; 0x34
10003f96:	4699      	mov	r9, r3
10003f98:	b26d      	sxtb	r5, r5
10003f9a:	44a1      	add	r9, r4
10003f9c:	2d00      	cmp	r5, #0
10003f9e:	dc05      	bgt.n	10003fac <xQueueGenericSend+0xe8>
10003fa0:	e013      	b.n	10003fca <xQueueGenericSend+0x106>
10003fa2:	3d01      	subs	r5, #1
10003fa4:	b2eb      	uxtb	r3, r5
10003fa6:	b26d      	sxtb	r5, r5
10003fa8:	2b00      	cmp	r3, #0
10003faa:	d00e      	beq.n	10003fca <xQueueGenericSend+0x106>
10003fac:	6923      	ldr	r3, [r4, #16]
10003fae:	2b00      	cmp	r3, #0
10003fb0:	d00b      	beq.n	10003fca <xQueueGenericSend+0x106>
10003fb2:	4648      	mov	r0, r9
10003fb4:	f7fe fe84 	bl	10002cc0 <xTaskRemoveFromEventList>
10003fb8:	2800      	cmp	r0, #0
10003fba:	d0f2      	beq.n	10003fa2 <xQueueGenericSend+0xde>
10003fbc:	3d01      	subs	r5, #1
10003fbe:	f7fe ff7d 	bl	10002ebc <vTaskMissedYield>
10003fc2:	b2eb      	uxtb	r3, r5
10003fc4:	b26d      	sxtb	r5, r5
10003fc6:	2b00      	cmp	r3, #0
10003fc8:	d1f0      	bne.n	10003fac <xQueueGenericSend+0xe8>
10003fca:	2344      	movs	r3, #68	; 0x44
10003fcc:	22ff      	movs	r2, #255	; 0xff
10003fce:	54e2      	strb	r2, [r4, r3]
10003fd0:	f7ff fcd4 	bl	1000397c <vPortExitCritical>
10003fd4:	f7fe fc00 	bl	100027d8 <xTaskResumeAll>
10003fd8:	2501      	movs	r5, #1
10003fda:	f7ff fcc3 	bl	10003964 <vPortEnterCritical>
10003fde:	6ba3      	ldr	r3, [r4, #56]	; 0x38
10003fe0:	6be2      	ldr	r2, [r4, #60]	; 0x3c
10003fe2:	4293      	cmp	r3, r2
10003fe4:	d281      	bcs.n	10003eea <xQueueGenericSend+0x26>
10003fe6:	6c22      	ldr	r2, [r4, #64]	; 0x40
10003fe8:	6ba5      	ldr	r5, [r4, #56]	; 0x38
10003fea:	2a00      	cmp	r2, #0
10003fec:	d000      	beq.n	10003ff0 <xQueueGenericSend+0x12c>
10003fee:	e0ce      	b.n	1000418e <xQueueGenericSend+0x2ca>
10003ff0:	3501      	adds	r5, #1
10003ff2:	63a5      	str	r5, [r4, #56]	; 0x38
10003ff4:	6a63      	ldr	r3, [r4, #36]	; 0x24
10003ff6:	2b00      	cmp	r3, #0
10003ff8:	d000      	beq.n	10003ffc <xQueueGenericSend+0x138>
10003ffa:	e0dc      	b.n	100041b6 <xQueueGenericSend+0x2f2>
10003ffc:	f7ff fcbe 	bl	1000397c <vPortExitCritical>
10004000:	2001      	movs	r0, #1
10004002:	b004      	add	sp, #16
10004004:	bc1c      	pop	{r2, r3, r4}
10004006:	4690      	mov	r8, r2
10004008:	4699      	mov	r9, r3
1000400a:	46a2      	mov	sl, r4
1000400c:	bdf0      	pop	{r4, r5, r6, r7, pc}
1000400e:	0027      	movs	r7, r4
10004010:	3710      	adds	r7, #16
10004012:	f7ff fcb3 	bl	1000397c <vPortExitCritical>
10004016:	0038      	movs	r0, r7
10004018:	9901      	ldr	r1, [sp, #4]
1000401a:	f7fe fd6f 	bl	10002afc <vTaskPlaceOnEventList>
1000401e:	f7ff fca1 	bl	10003964 <vPortEnterCritical>
10004022:	2345      	movs	r3, #69	; 0x45
10004024:	5ce5      	ldrb	r5, [r4, r3]
10004026:	b26d      	sxtb	r5, r5
10004028:	2d00      	cmp	r5, #0
1000402a:	dc05      	bgt.n	10004038 <xQueueGenericSend+0x174>
1000402c:	e013      	b.n	10004056 <xQueueGenericSend+0x192>
1000402e:	3d01      	subs	r5, #1
10004030:	b2ea      	uxtb	r2, r5
10004032:	b26d      	sxtb	r5, r5
10004034:	2a00      	cmp	r2, #0
10004036:	d00e      	beq.n	10004056 <xQueueGenericSend+0x192>
10004038:	6a63      	ldr	r3, [r4, #36]	; 0x24
1000403a:	2b00      	cmp	r3, #0
1000403c:	d00b      	beq.n	10004056 <xQueueGenericSend+0x192>
1000403e:	0030      	movs	r0, r6
10004040:	f7fe fe3e 	bl	10002cc0 <xTaskRemoveFromEventList>
10004044:	2800      	cmp	r0, #0
10004046:	d0f2      	beq.n	1000402e <xQueueGenericSend+0x16a>
10004048:	3d01      	subs	r5, #1
1000404a:	f7fe ff37 	bl	10002ebc <vTaskMissedYield>
1000404e:	b2ea      	uxtb	r2, r5
10004050:	b26d      	sxtb	r5, r5
10004052:	2a00      	cmp	r2, #0
10004054:	d1f0      	bne.n	10004038 <xQueueGenericSend+0x174>
10004056:	2345      	movs	r3, #69	; 0x45
10004058:	22ff      	movs	r2, #255	; 0xff
1000405a:	54e2      	strb	r2, [r4, r3]
1000405c:	f7ff fc8e 	bl	1000397c <vPortExitCritical>
10004060:	f7ff fc80 	bl	10003964 <vPortEnterCritical>
10004064:	2344      	movs	r3, #68	; 0x44
10004066:	5ce5      	ldrb	r5, [r4, r3]
10004068:	b26d      	sxtb	r5, r5
1000406a:	2d00      	cmp	r5, #0
1000406c:	dc05      	bgt.n	1000407a <xQueueGenericSend+0x1b6>
1000406e:	e013      	b.n	10004098 <xQueueGenericSend+0x1d4>
10004070:	3d01      	subs	r5, #1
10004072:	b2ea      	uxtb	r2, r5
10004074:	b26d      	sxtb	r5, r5
10004076:	2a00      	cmp	r2, #0
10004078:	d00e      	beq.n	10004098 <xQueueGenericSend+0x1d4>
1000407a:	6923      	ldr	r3, [r4, #16]
1000407c:	2b00      	cmp	r3, #0
1000407e:	d00b      	beq.n	10004098 <xQueueGenericSend+0x1d4>
10004080:	0038      	movs	r0, r7
10004082:	f7fe fe1d 	bl	10002cc0 <xTaskRemoveFromEventList>
10004086:	2800      	cmp	r0, #0
10004088:	d0f2      	beq.n	10004070 <xQueueGenericSend+0x1ac>
1000408a:	3d01      	subs	r5, #1
1000408c:	f7fe ff16 	bl	10002ebc <vTaskMissedYield>
10004090:	b2ea      	uxtb	r2, r5
10004092:	b26d      	sxtb	r5, r5
10004094:	2a00      	cmp	r2, #0
10004096:	d1f0      	bne.n	1000407a <xQueueGenericSend+0x1b6>
10004098:	2344      	movs	r3, #68	; 0x44
1000409a:	22ff      	movs	r2, #255	; 0xff
1000409c:	54e2      	strb	r2, [r4, r3]
1000409e:	f7ff fc6d 	bl	1000397c <vPortExitCritical>
100040a2:	f7fe fb99 	bl	100027d8 <xTaskResumeAll>
100040a6:	2800      	cmp	r0, #0
100040a8:	d196      	bne.n	10003fd8 <xQueueGenericSend+0x114>
100040aa:	f7ff fc4f 	bl	1000394c <vPortYield>
100040ae:	2501      	movs	r5, #1
100040b0:	e793      	b.n	10003fda <xQueueGenericSend+0x116>
100040b2:	a802      	add	r0, sp, #8
100040b4:	f7fe fec8 	bl	10002e48 <vTaskInternalSetTimeOutState>
100040b8:	e722      	b.n	10003f00 <xQueueGenericSend+0x3c>
100040ba:	6c22      	ldr	r2, [r4, #64]	; 0x40
100040bc:	6ba5      	ldr	r5, [r4, #56]	; 0x38
100040be:	2a00      	cmp	r2, #0
100040c0:	d096      	beq.n	10003ff0 <xQueueGenericSend+0x12c>
100040c2:	4641      	mov	r1, r8
100040c4:	68e0      	ldr	r0, [r4, #12]
100040c6:	f7fd fcdb 	bl	10001a80 <__wrap___aeabi_memcpy>
100040ca:	68e1      	ldr	r1, [r4, #12]
100040cc:	6c23      	ldr	r3, [r4, #64]	; 0x40
100040ce:	425a      	negs	r2, r3
100040d0:	1acb      	subs	r3, r1, r3
100040d2:	6821      	ldr	r1, [r4, #0]
100040d4:	60e3      	str	r3, [r4, #12]
100040d6:	428b      	cmp	r3, r1
100040d8:	d207      	bcs.n	100040ea <xQueueGenericSend+0x226>
100040da:	68a3      	ldr	r3, [r4, #8]
100040dc:	469c      	mov	ip, r3
100040de:	4462      	add	r2, ip
100040e0:	60e2      	str	r2, [r4, #12]
100040e2:	4653      	mov	r3, sl
100040e4:	2b02      	cmp	r3, #2
100040e6:	d000      	beq.n	100040ea <xQueueGenericSend+0x226>
100040e8:	e782      	b.n	10003ff0 <xQueueGenericSend+0x12c>
100040ea:	2d00      	cmp	r5, #0
100040ec:	d000      	beq.n	100040f0 <xQueueGenericSend+0x22c>
100040ee:	e780      	b.n	10003ff2 <xQueueGenericSend+0x12e>
100040f0:	e77e      	b.n	10003ff0 <xQueueGenericSend+0x12c>
100040f2:	f7ff fc43 	bl	1000397c <vPortExitCritical>
100040f6:	2000      	movs	r0, #0
100040f8:	e783      	b.n	10004002 <xQueueGenericSend+0x13e>
100040fa:	f7ff fc33 	bl	10003964 <vPortEnterCritical>
100040fe:	2345      	movs	r3, #69	; 0x45
10004100:	0026      	movs	r6, r4
10004102:	5ce5      	ldrb	r5, [r4, r3]
10004104:	3624      	adds	r6, #36	; 0x24
10004106:	b26d      	sxtb	r5, r5
10004108:	2d00      	cmp	r5, #0
1000410a:	dc05      	bgt.n	10004118 <xQueueGenericSend+0x254>
1000410c:	e013      	b.n	10004136 <xQueueGenericSend+0x272>
1000410e:	3d01      	subs	r5, #1
10004110:	b2ea      	uxtb	r2, r5
10004112:	b26d      	sxtb	r5, r5
10004114:	2a00      	cmp	r2, #0
10004116:	d00e      	beq.n	10004136 <xQueueGenericSend+0x272>
10004118:	6a63      	ldr	r3, [r4, #36]	; 0x24
1000411a:	2b00      	cmp	r3, #0
1000411c:	d00b      	beq.n	10004136 <xQueueGenericSend+0x272>
1000411e:	0030      	movs	r0, r6
10004120:	f7fe fdce 	bl	10002cc0 <xTaskRemoveFromEventList>
10004124:	2800      	cmp	r0, #0
10004126:	d0f2      	beq.n	1000410e <xQueueGenericSend+0x24a>
10004128:	3d01      	subs	r5, #1
1000412a:	f7fe fec7 	bl	10002ebc <vTaskMissedYield>
1000412e:	b2ea      	uxtb	r2, r5
10004130:	b26d      	sxtb	r5, r5
10004132:	2a00      	cmp	r2, #0
10004134:	d1f0      	bne.n	10004118 <xQueueGenericSend+0x254>
10004136:	2345      	movs	r3, #69	; 0x45
10004138:	22ff      	movs	r2, #255	; 0xff
1000413a:	54e2      	strb	r2, [r4, r3]
1000413c:	f7ff fc1e 	bl	1000397c <vPortExitCritical>
10004140:	f7ff fc10 	bl	10003964 <vPortEnterCritical>
10004144:	2344      	movs	r3, #68	; 0x44
10004146:	0026      	movs	r6, r4
10004148:	5ce5      	ldrb	r5, [r4, r3]
1000414a:	3610      	adds	r6, #16
1000414c:	b26d      	sxtb	r5, r5
1000414e:	2d00      	cmp	r5, #0
10004150:	dc05      	bgt.n	1000415e <xQueueGenericSend+0x29a>
10004152:	e013      	b.n	1000417c <xQueueGenericSend+0x2b8>
10004154:	3d01      	subs	r5, #1
10004156:	b2ea      	uxtb	r2, r5
10004158:	b26d      	sxtb	r5, r5
1000415a:	2a00      	cmp	r2, #0
1000415c:	d00e      	beq.n	1000417c <xQueueGenericSend+0x2b8>
1000415e:	6923      	ldr	r3, [r4, #16]
10004160:	2b00      	cmp	r3, #0
10004162:	d00b      	beq.n	1000417c <xQueueGenericSend+0x2b8>
10004164:	0030      	movs	r0, r6
10004166:	f7fe fdab 	bl	10002cc0 <xTaskRemoveFromEventList>
1000416a:	2800      	cmp	r0, #0
1000416c:	d0f2      	beq.n	10004154 <xQueueGenericSend+0x290>
1000416e:	3d01      	subs	r5, #1
10004170:	f7fe fea4 	bl	10002ebc <vTaskMissedYield>
10004174:	b2ea      	uxtb	r2, r5
10004176:	b26d      	sxtb	r5, r5
10004178:	2a00      	cmp	r2, #0
1000417a:	d1f0      	bne.n	1000415e <xQueueGenericSend+0x29a>
1000417c:	2344      	movs	r3, #68	; 0x44
1000417e:	22ff      	movs	r2, #255	; 0xff
10004180:	54e2      	strb	r2, [r4, r3]
10004182:	f7ff fbfb 	bl	1000397c <vPortExitCritical>
10004186:	f7fe fb27 	bl	100027d8 <xTaskResumeAll>
1000418a:	2000      	movs	r0, #0
1000418c:	e739      	b.n	10004002 <xQueueGenericSend+0x13e>
1000418e:	4653      	mov	r3, sl
10004190:	4641      	mov	r1, r8
10004192:	2b00      	cmp	r3, #0
10004194:	d119      	bne.n	100041ca <xQueueGenericSend+0x306>
10004196:	6860      	ldr	r0, [r4, #4]
10004198:	f7fd fc72 	bl	10001a80 <__wrap___aeabi_memcpy>
1000419c:	6c22      	ldr	r2, [r4, #64]	; 0x40
1000419e:	6863      	ldr	r3, [r4, #4]
100041a0:	4694      	mov	ip, r2
100041a2:	68a2      	ldr	r2, [r4, #8]
100041a4:	4463      	add	r3, ip
100041a6:	6063      	str	r3, [r4, #4]
100041a8:	4293      	cmp	r3, r2
100041aa:	d200      	bcs.n	100041ae <xQueueGenericSend+0x2ea>
100041ac:	e720      	b.n	10003ff0 <xQueueGenericSend+0x12c>
100041ae:	6823      	ldr	r3, [r4, #0]
100041b0:	3501      	adds	r5, #1
100041b2:	6063      	str	r3, [r4, #4]
100041b4:	e71d      	b.n	10003ff2 <xQueueGenericSend+0x12e>
100041b6:	0020      	movs	r0, r4
100041b8:	3024      	adds	r0, #36	; 0x24
100041ba:	f7fe fd81 	bl	10002cc0 <xTaskRemoveFromEventList>
100041be:	2800      	cmp	r0, #0
100041c0:	d100      	bne.n	100041c4 <xQueueGenericSend+0x300>
100041c2:	e71b      	b.n	10003ffc <xQueueGenericSend+0x138>
100041c4:	f7ff fbc2 	bl	1000394c <vPortYield>
100041c8:	e718      	b.n	10003ffc <xQueueGenericSend+0x138>
100041ca:	68e0      	ldr	r0, [r4, #12]
100041cc:	f7fd fc58 	bl	10001a80 <__wrap___aeabi_memcpy>
100041d0:	68e1      	ldr	r1, [r4, #12]
100041d2:	6c23      	ldr	r3, [r4, #64]	; 0x40
100041d4:	425a      	negs	r2, r3
100041d6:	1acb      	subs	r3, r1, r3
100041d8:	6821      	ldr	r1, [r4, #0]
100041da:	60e3      	str	r3, [r4, #12]
100041dc:	428b      	cmp	r3, r1
100041de:	d280      	bcs.n	100040e2 <xQueueGenericSend+0x21e>
100041e0:	e77b      	b.n	100040da <xQueueGenericSend+0x216>
100041e2:	46c0      	nop			; (mov r8, r8)

100041e4 <xQueueGenericSendFromISR>:
100041e4:	b5f0      	push	{r4, r5, r6, r7, lr}
100041e6:	464f      	mov	r7, r9
100041e8:	46d6      	mov	lr, sl
100041ea:	4646      	mov	r6, r8
100041ec:	b5c0      	push	{r6, r7, lr}
100041ee:	0004      	movs	r4, r0
100041f0:	4699      	mov	r9, r3
100041f2:	000f      	movs	r7, r1
100041f4:	4690      	mov	r8, r2
100041f6:	f7ff fbcb 	bl	10003990 <ulSetInterruptMaskFromISR>
100041fa:	6be3      	ldr	r3, [r4, #60]	; 0x3c
100041fc:	0005      	movs	r5, r0
100041fe:	6ba0      	ldr	r0, [r4, #56]	; 0x38
10004200:	4298      	cmp	r0, r3
10004202:	d31e      	bcc.n	10004242 <xQueueGenericSendFromISR+0x5e>
10004204:	464b      	mov	r3, r9
10004206:	2b02      	cmp	r3, #2
10004208:	d009      	beq.n	1000421e <xQueueGenericSendFromISR+0x3a>
1000420a:	2400      	movs	r4, #0
1000420c:	0028      	movs	r0, r5
1000420e:	f7ff fbc3 	bl	10003998 <vClearInterruptMaskFromISR>
10004212:	0020      	movs	r0, r4
10004214:	bc1c      	pop	{r2, r3, r4}
10004216:	4690      	mov	r8, r2
10004218:	4699      	mov	r9, r3
1000421a:	46a2      	mov	sl, r4
1000421c:	bdf0      	pop	{r4, r5, r6, r7, pc}
1000421e:	2345      	movs	r3, #69	; 0x45
10004220:	6c22      	ldr	r2, [r4, #64]	; 0x40
10004222:	5ce6      	ldrb	r6, [r4, r3]
10004224:	6ba3      	ldr	r3, [r4, #56]	; 0x38
10004226:	6ba3      	ldr	r3, [r4, #56]	; 0x38
10004228:	b276      	sxtb	r6, r6
1000422a:	469a      	mov	sl, r3
1000422c:	2a00      	cmp	r2, #0
1000422e:	d12f      	bne.n	10004290 <xQueueGenericSendFromISR+0xac>
10004230:	3301      	adds	r3, #1
10004232:	63a3      	str	r3, [r4, #56]	; 0x38
10004234:	1c73      	adds	r3, r6, #1
10004236:	d121      	bne.n	1000427c <xQueueGenericSendFromISR+0x98>
10004238:	6a63      	ldr	r3, [r4, #36]	; 0x24
1000423a:	2b00      	cmp	r3, #0
1000423c:	d13e      	bne.n	100042bc <xQueueGenericSendFromISR+0xd8>
1000423e:	2401      	movs	r4, #1
10004240:	e7e4      	b.n	1000420c <xQueueGenericSendFromISR+0x28>
10004242:	2345      	movs	r3, #69	; 0x45
10004244:	6c22      	ldr	r2, [r4, #64]	; 0x40
10004246:	5ce6      	ldrb	r6, [r4, r3]
10004248:	6ba3      	ldr	r3, [r4, #56]	; 0x38
1000424a:	6ba3      	ldr	r3, [r4, #56]	; 0x38
1000424c:	b276      	sxtb	r6, r6
1000424e:	469a      	mov	sl, r3
10004250:	2a00      	cmp	r2, #0
10004252:	d0ed      	beq.n	10004230 <xQueueGenericSendFromISR+0x4c>
10004254:	464b      	mov	r3, r9
10004256:	0039      	movs	r1, r7
10004258:	2b00      	cmp	r3, #0
1000425a:	d141      	bne.n	100042e0 <xQueueGenericSendFromISR+0xfc>
1000425c:	6860      	ldr	r0, [r4, #4]
1000425e:	f7fd fc0f 	bl	10001a80 <__wrap___aeabi_memcpy>
10004262:	6c22      	ldr	r2, [r4, #64]	; 0x40
10004264:	6863      	ldr	r3, [r4, #4]
10004266:	4694      	mov	ip, r2
10004268:	68a2      	ldr	r2, [r4, #8]
1000426a:	4463      	add	r3, ip
1000426c:	6063      	str	r3, [r4, #4]
1000426e:	4293      	cmp	r3, r2
10004270:	d321      	bcc.n	100042b6 <xQueueGenericSendFromISR+0xd2>
10004272:	6823      	ldr	r3, [r4, #0]
10004274:	6063      	str	r3, [r4, #4]
10004276:	4653      	mov	r3, sl
10004278:	3301      	adds	r3, #1
1000427a:	e7da      	b.n	10004232 <xQueueGenericSendFromISR+0x4e>
1000427c:	f7fe fbc4 	bl	10002a08 <uxTaskGetNumberOfTasks>
10004280:	4286      	cmp	r6, r0
10004282:	d2dc      	bcs.n	1000423e <xQueueGenericSendFromISR+0x5a>
10004284:	2345      	movs	r3, #69	; 0x45
10004286:	3601      	adds	r6, #1
10004288:	b276      	sxtb	r6, r6
1000428a:	54e6      	strb	r6, [r4, r3]
1000428c:	2401      	movs	r4, #1
1000428e:	e7bd      	b.n	1000420c <xQueueGenericSendFromISR+0x28>
10004290:	0039      	movs	r1, r7
10004292:	68e0      	ldr	r0, [r4, #12]
10004294:	f7fd fbf4 	bl	10001a80 <__wrap___aeabi_memcpy>
10004298:	68e1      	ldr	r1, [r4, #12]
1000429a:	6c23      	ldr	r3, [r4, #64]	; 0x40
1000429c:	425a      	negs	r2, r3
1000429e:	1acb      	subs	r3, r1, r3
100042a0:	6821      	ldr	r1, [r4, #0]
100042a2:	60e3      	str	r3, [r4, #12]
100042a4:	428b      	cmp	r3, r1
100042a6:	d217      	bcs.n	100042d8 <xQueueGenericSendFromISR+0xf4>
100042a8:	68a3      	ldr	r3, [r4, #8]
100042aa:	469c      	mov	ip, r3
100042ac:	4462      	add	r2, ip
100042ae:	60e2      	str	r2, [r4, #12]
100042b0:	464b      	mov	r3, r9
100042b2:	2b02      	cmp	r3, #2
100042b4:	d010      	beq.n	100042d8 <xQueueGenericSendFromISR+0xf4>
100042b6:	4653      	mov	r3, sl
100042b8:	3301      	adds	r3, #1
100042ba:	e7ba      	b.n	10004232 <xQueueGenericSendFromISR+0x4e>
100042bc:	0020      	movs	r0, r4
100042be:	3024      	adds	r0, #36	; 0x24
100042c0:	f7fe fcfe 	bl	10002cc0 <xTaskRemoveFromEventList>
100042c4:	2800      	cmp	r0, #0
100042c6:	d0ba      	beq.n	1000423e <xQueueGenericSendFromISR+0x5a>
100042c8:	4643      	mov	r3, r8
100042ca:	2b00      	cmp	r3, #0
100042cc:	d0b7      	beq.n	1000423e <xQueueGenericSendFromISR+0x5a>
100042ce:	2301      	movs	r3, #1
100042d0:	4642      	mov	r2, r8
100042d2:	2401      	movs	r4, #1
100042d4:	6013      	str	r3, [r2, #0]
100042d6:	e799      	b.n	1000420c <xQueueGenericSendFromISR+0x28>
100042d8:	4653      	mov	r3, sl
100042da:	2b00      	cmp	r3, #0
100042dc:	d1a9      	bne.n	10004232 <xQueueGenericSendFromISR+0x4e>
100042de:	e7a7      	b.n	10004230 <xQueueGenericSendFromISR+0x4c>
100042e0:	68e0      	ldr	r0, [r4, #12]
100042e2:	f7fd fbcd 	bl	10001a80 <__wrap___aeabi_memcpy>
100042e6:	68e1      	ldr	r1, [r4, #12]
100042e8:	6c23      	ldr	r3, [r4, #64]	; 0x40
100042ea:	425a      	negs	r2, r3
100042ec:	1acb      	subs	r3, r1, r3
100042ee:	6821      	ldr	r1, [r4, #0]
100042f0:	60e3      	str	r3, [r4, #12]
100042f2:	428b      	cmp	r3, r1
100042f4:	d2dc      	bcs.n	100042b0 <xQueueGenericSendFromISR+0xcc>
100042f6:	e7d7      	b.n	100042a8 <xQueueGenericSendFromISR+0xc4>

100042f8 <xQueueGiveFromISR>:
100042f8:	b5f0      	push	{r4, r5, r6, r7, lr}
100042fa:	46c6      	mov	lr, r8
100042fc:	0004      	movs	r4, r0
100042fe:	b500      	push	{lr}
10004300:	000e      	movs	r6, r1
10004302:	f7ff fb45 	bl	10003990 <ulSetInterruptMaskFromISR>
10004306:	6ba3      	ldr	r3, [r4, #56]	; 0x38
10004308:	6be2      	ldr	r2, [r4, #60]	; 0x3c
1000430a:	0005      	movs	r5, r0
1000430c:	2700      	movs	r7, #0
1000430e:	429a      	cmp	r2, r3
10004310:	d90b      	bls.n	1000432a <xQueueGiveFromISR+0x32>
10004312:	2245      	movs	r2, #69	; 0x45
10004314:	5ca7      	ldrb	r7, [r4, r2]
10004316:	3301      	adds	r3, #1
10004318:	b27f      	sxtb	r7, r7
1000431a:	4690      	mov	r8, r2
1000431c:	63a3      	str	r3, [r4, #56]	; 0x38
1000431e:	1c7b      	adds	r3, r7, #1
10004320:	d10a      	bne.n	10004338 <xQueueGiveFromISR+0x40>
10004322:	6a63      	ldr	r3, [r4, #36]	; 0x24
10004324:	2b00      	cmp	r3, #0
10004326:	d111      	bne.n	1000434c <xQueueGiveFromISR+0x54>
10004328:	2701      	movs	r7, #1
1000432a:	0028      	movs	r0, r5
1000432c:	f7ff fb34 	bl	10003998 <vClearInterruptMaskFromISR>
10004330:	0038      	movs	r0, r7
10004332:	bc04      	pop	{r2}
10004334:	4690      	mov	r8, r2
10004336:	bdf0      	pop	{r4, r5, r6, r7, pc}
10004338:	f7fe fb66 	bl	10002a08 <uxTaskGetNumberOfTasks>
1000433c:	4287      	cmp	r7, r0
1000433e:	d2f3      	bcs.n	10004328 <xQueueGiveFromISR+0x30>
10004340:	4643      	mov	r3, r8
10004342:	3701      	adds	r7, #1
10004344:	b27f      	sxtb	r7, r7
10004346:	54e7      	strb	r7, [r4, r3]
10004348:	2701      	movs	r7, #1
1000434a:	e7ee      	b.n	1000432a <xQueueGiveFromISR+0x32>
1000434c:	0020      	movs	r0, r4
1000434e:	3024      	adds	r0, #36	; 0x24
10004350:	f7fe fcb6 	bl	10002cc0 <xTaskRemoveFromEventList>
10004354:	2800      	cmp	r0, #0
10004356:	d0e7      	beq.n	10004328 <xQueueGiveFromISR+0x30>
10004358:	2e00      	cmp	r6, #0
1000435a:	d0e5      	beq.n	10004328 <xQueueGiveFromISR+0x30>
1000435c:	2301      	movs	r3, #1
1000435e:	2701      	movs	r7, #1
10004360:	6033      	str	r3, [r6, #0]
10004362:	e7e2      	b.n	1000432a <xQueueGiveFromISR+0x32>

10004364 <xQueueReceive>:
10004364:	b5f0      	push	{r4, r5, r6, r7, lr}
10004366:	46ce      	mov	lr, r9
10004368:	4647      	mov	r7, r8
1000436a:	0004      	movs	r4, r0
1000436c:	b580      	push	{r7, lr}
1000436e:	b085      	sub	sp, #20
10004370:	4688      	mov	r8, r1
10004372:	9201      	str	r2, [sp, #4]
10004374:	f7ff faf6 	bl	10003964 <vPortEnterCritical>
10004378:	6ba5      	ldr	r5, [r4, #56]	; 0x38
1000437a:	2d00      	cmp	r5, #0
1000437c:	d000      	beq.n	10004380 <xQueueReceive+0x1c>
1000437e:	e123      	b.n	100045c8 <xQueueReceive+0x264>
10004380:	9b01      	ldr	r3, [sp, #4]
10004382:	2b00      	cmp	r3, #0
10004384:	d100      	bne.n	10004388 <xQueueReceive+0x24>
10004386:	e0cb      	b.n	10004520 <xQueueReceive+0x1bc>
10004388:	0026      	movs	r6, r4
1000438a:	a802      	add	r0, sp, #8
1000438c:	f7fe fd5c 	bl	10002e48 <vTaskInternalSetTimeOutState>
10004390:	2744      	movs	r7, #68	; 0x44
10004392:	3624      	adds	r6, #36	; 0x24
10004394:	f7ff faf2 	bl	1000397c <vPortExitCritical>
10004398:	f7fe fa16 	bl	100027c8 <vTaskSuspendAll>
1000439c:	f7ff fae2 	bl	10003964 <vPortEnterCritical>
100043a0:	5de3      	ldrb	r3, [r4, r7]
100043a2:	b25b      	sxtb	r3, r3
100043a4:	3301      	adds	r3, #1
100043a6:	d101      	bne.n	100043ac <xQueueReceive+0x48>
100043a8:	2300      	movs	r3, #0
100043aa:	55e3      	strb	r3, [r4, r7]
100043ac:	2245      	movs	r2, #69	; 0x45
100043ae:	5ca3      	ldrb	r3, [r4, r2]
100043b0:	b25b      	sxtb	r3, r3
100043b2:	3301      	adds	r3, #1
100043b4:	d101      	bne.n	100043ba <xQueueReceive+0x56>
100043b6:	2300      	movs	r3, #0
100043b8:	54a3      	strb	r3, [r4, r2]
100043ba:	f7ff fadf 	bl	1000397c <vPortExitCritical>
100043be:	a901      	add	r1, sp, #4
100043c0:	a802      	add	r0, sp, #8
100043c2:	f7fe fd4d 	bl	10002e60 <xTaskCheckForTimeOut>
100043c6:	2800      	cmp	r0, #0
100043c8:	d155      	bne.n	10004476 <xQueueReceive+0x112>
100043ca:	f7ff facb 	bl	10003964 <vPortEnterCritical>
100043ce:	6ba3      	ldr	r3, [r4, #56]	; 0x38
100043d0:	2b00      	cmp	r3, #0
100043d2:	d000      	beq.n	100043d6 <xQueueReceive+0x72>
100043d4:	e0ac      	b.n	10004530 <xQueueReceive+0x1cc>
100043d6:	f7ff fad1 	bl	1000397c <vPortExitCritical>
100043da:	0030      	movs	r0, r6
100043dc:	9901      	ldr	r1, [sp, #4]
100043de:	f7fe fb8d 	bl	10002afc <vTaskPlaceOnEventList>
100043e2:	f7ff fabf 	bl	10003964 <vPortEnterCritical>
100043e6:	2345      	movs	r3, #69	; 0x45
100043e8:	5ce5      	ldrb	r5, [r4, r3]
100043ea:	b26d      	sxtb	r5, r5
100043ec:	2d00      	cmp	r5, #0
100043ee:	dc05      	bgt.n	100043fc <xQueueReceive+0x98>
100043f0:	e013      	b.n	1000441a <xQueueReceive+0xb6>
100043f2:	3d01      	subs	r5, #1
100043f4:	b2ea      	uxtb	r2, r5
100043f6:	b26d      	sxtb	r5, r5
100043f8:	2a00      	cmp	r2, #0
100043fa:	d00e      	beq.n	1000441a <xQueueReceive+0xb6>
100043fc:	6a63      	ldr	r3, [r4, #36]	; 0x24
100043fe:	2b00      	cmp	r3, #0
10004400:	d00b      	beq.n	1000441a <xQueueReceive+0xb6>
10004402:	0030      	movs	r0, r6
10004404:	f7fe fc5c 	bl	10002cc0 <xTaskRemoveFromEventList>
10004408:	2800      	cmp	r0, #0
1000440a:	d0f2      	beq.n	100043f2 <xQueueReceive+0x8e>
1000440c:	3d01      	subs	r5, #1
1000440e:	f7fe fd55 	bl	10002ebc <vTaskMissedYield>
10004412:	b2ea      	uxtb	r2, r5
10004414:	b26d      	sxtb	r5, r5
10004416:	2a00      	cmp	r2, #0
10004418:	d1f0      	bne.n	100043fc <xQueueReceive+0x98>
1000441a:	2345      	movs	r3, #69	; 0x45
1000441c:	22ff      	movs	r2, #255	; 0xff
1000441e:	54e2      	strb	r2, [r4, r3]
10004420:	f7ff faac 	bl	1000397c <vPortExitCritical>
10004424:	f7ff fa9e 	bl	10003964 <vPortEnterCritical>
10004428:	2310      	movs	r3, #16
1000442a:	4699      	mov	r9, r3
1000442c:	5de5      	ldrb	r5, [r4, r7]
1000442e:	44a1      	add	r9, r4
10004430:	b26d      	sxtb	r5, r5
10004432:	2d00      	cmp	r5, #0
10004434:	dc05      	bgt.n	10004442 <xQueueReceive+0xde>
10004436:	e013      	b.n	10004460 <xQueueReceive+0xfc>
10004438:	3d01      	subs	r5, #1
1000443a:	b2ea      	uxtb	r2, r5
1000443c:	b26d      	sxtb	r5, r5
1000443e:	2a00      	cmp	r2, #0
10004440:	d00e      	beq.n	10004460 <xQueueReceive+0xfc>
10004442:	6923      	ldr	r3, [r4, #16]
10004444:	2b00      	cmp	r3, #0
10004446:	d00b      	beq.n	10004460 <xQueueReceive+0xfc>
10004448:	4648      	mov	r0, r9
1000444a:	f7fe fc39 	bl	10002cc0 <xTaskRemoveFromEventList>
1000444e:	2800      	cmp	r0, #0
10004450:	d0f2      	beq.n	10004438 <xQueueReceive+0xd4>
10004452:	3d01      	subs	r5, #1
10004454:	f7fe fd32 	bl	10002ebc <vTaskMissedYield>
10004458:	b2ea      	uxtb	r2, r5
1000445a:	b26d      	sxtb	r5, r5
1000445c:	2a00      	cmp	r2, #0
1000445e:	d1f0      	bne.n	10004442 <xQueueReceive+0xde>
10004460:	23ff      	movs	r3, #255	; 0xff
10004462:	55e3      	strb	r3, [r4, r7]
10004464:	f7ff fa8a 	bl	1000397c <vPortExitCritical>
10004468:	f7fe f9b6 	bl	100027d8 <xTaskResumeAll>
1000446c:	2800      	cmp	r0, #0
1000446e:	d14e      	bne.n	1000450e <xQueueReceive+0x1aa>
10004470:	f7ff fa6c 	bl	1000394c <vPortYield>
10004474:	e04b      	b.n	1000450e <xQueueReceive+0x1aa>
10004476:	f7ff fa75 	bl	10003964 <vPortEnterCritical>
1000447a:	2345      	movs	r3, #69	; 0x45
1000447c:	5ce5      	ldrb	r5, [r4, r3]
1000447e:	b26d      	sxtb	r5, r5
10004480:	2d00      	cmp	r5, #0
10004482:	dc05      	bgt.n	10004490 <xQueueReceive+0x12c>
10004484:	e013      	b.n	100044ae <xQueueReceive+0x14a>
10004486:	3d01      	subs	r5, #1
10004488:	b2ea      	uxtb	r2, r5
1000448a:	b26d      	sxtb	r5, r5
1000448c:	2a00      	cmp	r2, #0
1000448e:	d00e      	beq.n	100044ae <xQueueReceive+0x14a>
10004490:	6a63      	ldr	r3, [r4, #36]	; 0x24
10004492:	2b00      	cmp	r3, #0
10004494:	d00b      	beq.n	100044ae <xQueueReceive+0x14a>
10004496:	0030      	movs	r0, r6
10004498:	f7fe fc12 	bl	10002cc0 <xTaskRemoveFromEventList>
1000449c:	2800      	cmp	r0, #0
1000449e:	d0f2      	beq.n	10004486 <xQueueReceive+0x122>
100044a0:	3d01      	subs	r5, #1
100044a2:	f7fe fd0b 	bl	10002ebc <vTaskMissedYield>
100044a6:	b2ea      	uxtb	r2, r5
100044a8:	b26d      	sxtb	r5, r5
100044aa:	2a00      	cmp	r2, #0
100044ac:	d1f0      	bne.n	10004490 <xQueueReceive+0x12c>
100044ae:	2345      	movs	r3, #69	; 0x45
100044b0:	22ff      	movs	r2, #255	; 0xff
100044b2:	54e2      	strb	r2, [r4, r3]
100044b4:	f7ff fa62 	bl	1000397c <vPortExitCritical>
100044b8:	f7ff fa54 	bl	10003964 <vPortEnterCritical>
100044bc:	2310      	movs	r3, #16
100044be:	4699      	mov	r9, r3
100044c0:	5de5      	ldrb	r5, [r4, r7]
100044c2:	44a1      	add	r9, r4
100044c4:	b26d      	sxtb	r5, r5
100044c6:	2d00      	cmp	r5, #0
100044c8:	dc05      	bgt.n	100044d6 <xQueueReceive+0x172>
100044ca:	e013      	b.n	100044f4 <xQueueReceive+0x190>
100044cc:	3d01      	subs	r5, #1
100044ce:	b2ea      	uxtb	r2, r5
100044d0:	b26d      	sxtb	r5, r5
100044d2:	2a00      	cmp	r2, #0
100044d4:	d00e      	beq.n	100044f4 <xQueueReceive+0x190>
100044d6:	6923      	ldr	r3, [r4, #16]
100044d8:	2b00      	cmp	r3, #0
100044da:	d00b      	beq.n	100044f4 <xQueueReceive+0x190>
100044dc:	4648      	mov	r0, r9
100044de:	f7fe fbef 	bl	10002cc0 <xTaskRemoveFromEventList>
100044e2:	2800      	cmp	r0, #0
100044e4:	d0f2      	beq.n	100044cc <xQueueReceive+0x168>
100044e6:	3d01      	subs	r5, #1
100044e8:	f7fe fce8 	bl	10002ebc <vTaskMissedYield>
100044ec:	b2ea      	uxtb	r2, r5
100044ee:	b26d      	sxtb	r5, r5
100044f0:	2a00      	cmp	r2, #0
100044f2:	d1f0      	bne.n	100044d6 <xQueueReceive+0x172>
100044f4:	23ff      	movs	r3, #255	; 0xff
100044f6:	55e3      	strb	r3, [r4, r7]
100044f8:	f7ff fa40 	bl	1000397c <vPortExitCritical>
100044fc:	f7fe f96c 	bl	100027d8 <xTaskResumeAll>
10004500:	f7ff fa30 	bl	10003964 <vPortEnterCritical>
10004504:	6ba3      	ldr	r3, [r4, #56]	; 0x38
10004506:	2b00      	cmp	r3, #0
10004508:	d00a      	beq.n	10004520 <xQueueReceive+0x1bc>
1000450a:	f7ff fa37 	bl	1000397c <vPortExitCritical>
1000450e:	f7ff fa29 	bl	10003964 <vPortEnterCritical>
10004512:	6ba5      	ldr	r5, [r4, #56]	; 0x38
10004514:	2d00      	cmp	r5, #0
10004516:	d157      	bne.n	100045c8 <xQueueReceive+0x264>
10004518:	9b01      	ldr	r3, [sp, #4]
1000451a:	2b00      	cmp	r3, #0
1000451c:	d000      	beq.n	10004520 <xQueueReceive+0x1bc>
1000451e:	e739      	b.n	10004394 <xQueueReceive+0x30>
10004520:	f7ff fa2c 	bl	1000397c <vPortExitCritical>
10004524:	2000      	movs	r0, #0
10004526:	b005      	add	sp, #20
10004528:	bc0c      	pop	{r2, r3}
1000452a:	4690      	mov	r8, r2
1000452c:	4699      	mov	r9, r3
1000452e:	bdf0      	pop	{r4, r5, r6, r7, pc}
10004530:	f7ff fa24 	bl	1000397c <vPortExitCritical>
10004534:	f7ff fa16 	bl	10003964 <vPortEnterCritical>
10004538:	2345      	movs	r3, #69	; 0x45
1000453a:	5ce5      	ldrb	r5, [r4, r3]
1000453c:	b26d      	sxtb	r5, r5
1000453e:	2d00      	cmp	r5, #0
10004540:	dc05      	bgt.n	1000454e <xQueueReceive+0x1ea>
10004542:	e013      	b.n	1000456c <xQueueReceive+0x208>
10004544:	3d01      	subs	r5, #1
10004546:	b2ea      	uxtb	r2, r5
10004548:	b26d      	sxtb	r5, r5
1000454a:	2a00      	cmp	r2, #0
1000454c:	d00e      	beq.n	1000456c <xQueueReceive+0x208>
1000454e:	6a63      	ldr	r3, [r4, #36]	; 0x24
10004550:	2b00      	cmp	r3, #0
10004552:	d00b      	beq.n	1000456c <xQueueReceive+0x208>
10004554:	0030      	movs	r0, r6
10004556:	f7fe fbb3 	bl	10002cc0 <xTaskRemoveFromEventList>
1000455a:	2800      	cmp	r0, #0
1000455c:	d0f2      	beq.n	10004544 <xQueueReceive+0x1e0>
1000455e:	3d01      	subs	r5, #1
10004560:	f7fe fcac 	bl	10002ebc <vTaskMissedYield>
10004564:	b2ea      	uxtb	r2, r5
10004566:	b26d      	sxtb	r5, r5
10004568:	2a00      	cmp	r2, #0
1000456a:	d1f0      	bne.n	1000454e <xQueueReceive+0x1ea>
1000456c:	2345      	movs	r3, #69	; 0x45
1000456e:	22ff      	movs	r2, #255	; 0xff
10004570:	54e2      	strb	r2, [r4, r3]
10004572:	f7ff fa03 	bl	1000397c <vPortExitCritical>
10004576:	f7ff f9f5 	bl	10003964 <vPortEnterCritical>
1000457a:	2310      	movs	r3, #16
1000457c:	4699      	mov	r9, r3
1000457e:	5de5      	ldrb	r5, [r4, r7]
10004580:	44a1      	add	r9, r4
10004582:	b26d      	sxtb	r5, r5
10004584:	2d00      	cmp	r5, #0
10004586:	dc05      	bgt.n	10004594 <xQueueReceive+0x230>
10004588:	e013      	b.n	100045b2 <xQueueReceive+0x24e>
1000458a:	3d01      	subs	r5, #1
1000458c:	b2ea      	uxtb	r2, r5
1000458e:	b26d      	sxtb	r5, r5
10004590:	2a00      	cmp	r2, #0
10004592:	d00e      	beq.n	100045b2 <xQueueReceive+0x24e>
10004594:	6923      	ldr	r3, [r4, #16]
10004596:	2b00      	cmp	r3, #0
10004598:	d00b      	beq.n	100045b2 <xQueueReceive+0x24e>
1000459a:	4648      	mov	r0, r9
1000459c:	f7fe fb90 	bl	10002cc0 <xTaskRemoveFromEventList>
100045a0:	2800      	cmp	r0, #0
100045a2:	d0f2      	beq.n	1000458a <xQueueReceive+0x226>
100045a4:	3d01      	subs	r5, #1
100045a6:	f7fe fc89 	bl	10002ebc <vTaskMissedYield>
100045aa:	b2ea      	uxtb	r2, r5
100045ac:	b26d      	sxtb	r5, r5
100045ae:	2a00      	cmp	r2, #0
100045b0:	d1f0      	bne.n	10004594 <xQueueReceive+0x230>
100045b2:	23ff      	movs	r3, #255	; 0xff
100045b4:	55e3      	strb	r3, [r4, r7]
100045b6:	f7ff f9e1 	bl	1000397c <vPortExitCritical>
100045ba:	f7fe f90d 	bl	100027d8 <xTaskResumeAll>
100045be:	f7ff f9d1 	bl	10003964 <vPortEnterCritical>
100045c2:	6ba5      	ldr	r5, [r4, #56]	; 0x38
100045c4:	2d00      	cmp	r5, #0
100045c6:	d0a7      	beq.n	10004518 <xQueueReceive+0x1b4>
100045c8:	6c22      	ldr	r2, [r4, #64]	; 0x40
100045ca:	2a00      	cmp	r2, #0
100045cc:	d008      	beq.n	100045e0 <xQueueReceive+0x27c>
100045ce:	68e3      	ldr	r3, [r4, #12]
100045d0:	1899      	adds	r1, r3, r2
100045d2:	68a3      	ldr	r3, [r4, #8]
100045d4:	60e1      	str	r1, [r4, #12]
100045d6:	4299      	cmp	r1, r3
100045d8:	d20b      	bcs.n	100045f2 <xQueueReceive+0x28e>
100045da:	4640      	mov	r0, r8
100045dc:	f7fd fa50 	bl	10001a80 <__wrap___aeabi_memcpy>
100045e0:	3d01      	subs	r5, #1
100045e2:	63a5      	str	r5, [r4, #56]	; 0x38
100045e4:	6923      	ldr	r3, [r4, #16]
100045e6:	2b00      	cmp	r3, #0
100045e8:	d106      	bne.n	100045f8 <xQueueReceive+0x294>
100045ea:	f7ff f9c7 	bl	1000397c <vPortExitCritical>
100045ee:	2001      	movs	r0, #1
100045f0:	e799      	b.n	10004526 <xQueueReceive+0x1c2>
100045f2:	6821      	ldr	r1, [r4, #0]
100045f4:	60e1      	str	r1, [r4, #12]
100045f6:	e7f0      	b.n	100045da <xQueueReceive+0x276>
100045f8:	0020      	movs	r0, r4
100045fa:	3010      	adds	r0, #16
100045fc:	f7fe fb60 	bl	10002cc0 <xTaskRemoveFromEventList>
10004600:	2800      	cmp	r0, #0
10004602:	d0f2      	beq.n	100045ea <xQueueReceive+0x286>
10004604:	f7ff f9a2 	bl	1000394c <vPortYield>
10004608:	e7ef      	b.n	100045ea <xQueueReceive+0x286>
1000460a:	46c0      	nop			; (mov r8, r8)

1000460c <xQueueSemaphoreTake>:
1000460c:	b5f0      	push	{r4, r5, r6, r7, lr}
1000460e:	46c6      	mov	lr, r8
10004610:	0004      	movs	r4, r0
10004612:	b500      	push	{lr}
10004614:	b084      	sub	sp, #16
10004616:	9101      	str	r1, [sp, #4]
10004618:	f7ff f9a4 	bl	10003964 <vPortEnterCritical>
1000461c:	6ba3      	ldr	r3, [r4, #56]	; 0x38
1000461e:	2b00      	cmp	r3, #0
10004620:	d000      	beq.n	10004624 <xQueueSemaphoreTake+0x18>
10004622:	e122      	b.n	1000486a <xQueueSemaphoreTake+0x25e>
10004624:	9b01      	ldr	r3, [sp, #4]
10004626:	2b00      	cmp	r3, #0
10004628:	d100      	bne.n	1000462c <xQueueSemaphoreTake+0x20>
1000462a:	e0cb      	b.n	100047c4 <xQueueSemaphoreTake+0x1b8>
1000462c:	0026      	movs	r6, r4
1000462e:	a802      	add	r0, sp, #8
10004630:	f7fe fc0a 	bl	10002e48 <vTaskInternalSetTimeOutState>
10004634:	2744      	movs	r7, #68	; 0x44
10004636:	3624      	adds	r6, #36	; 0x24
10004638:	f7ff f9a0 	bl	1000397c <vPortExitCritical>
1000463c:	f7fe f8c4 	bl	100027c8 <vTaskSuspendAll>
10004640:	f7ff f990 	bl	10003964 <vPortEnterCritical>
10004644:	5de3      	ldrb	r3, [r4, r7]
10004646:	b25b      	sxtb	r3, r3
10004648:	3301      	adds	r3, #1
1000464a:	d101      	bne.n	10004650 <xQueueSemaphoreTake+0x44>
1000464c:	2300      	movs	r3, #0
1000464e:	55e3      	strb	r3, [r4, r7]
10004650:	2245      	movs	r2, #69	; 0x45
10004652:	5ca3      	ldrb	r3, [r4, r2]
10004654:	b25b      	sxtb	r3, r3
10004656:	3301      	adds	r3, #1
10004658:	d101      	bne.n	1000465e <xQueueSemaphoreTake+0x52>
1000465a:	2300      	movs	r3, #0
1000465c:	54a3      	strb	r3, [r4, r2]
1000465e:	f7ff f98d 	bl	1000397c <vPortExitCritical>
10004662:	a901      	add	r1, sp, #4
10004664:	a802      	add	r0, sp, #8
10004666:	f7fe fbfb 	bl	10002e60 <xTaskCheckForTimeOut>
1000466a:	2800      	cmp	r0, #0
1000466c:	d155      	bne.n	1000471a <xQueueSemaphoreTake+0x10e>
1000466e:	f7ff f979 	bl	10003964 <vPortEnterCritical>
10004672:	6ba3      	ldr	r3, [r4, #56]	; 0x38
10004674:	2b00      	cmp	r3, #0
10004676:	d000      	beq.n	1000467a <xQueueSemaphoreTake+0x6e>
10004678:	e0ab      	b.n	100047d2 <xQueueSemaphoreTake+0x1c6>
1000467a:	f7ff f97f 	bl	1000397c <vPortExitCritical>
1000467e:	0030      	movs	r0, r6
10004680:	9901      	ldr	r1, [sp, #4]
10004682:	f7fe fa3b 	bl	10002afc <vTaskPlaceOnEventList>
10004686:	f7ff f96d 	bl	10003964 <vPortEnterCritical>
1000468a:	2345      	movs	r3, #69	; 0x45
1000468c:	5ce5      	ldrb	r5, [r4, r3]
1000468e:	b26d      	sxtb	r5, r5
10004690:	2d00      	cmp	r5, #0
10004692:	dc05      	bgt.n	100046a0 <xQueueSemaphoreTake+0x94>
10004694:	e013      	b.n	100046be <xQueueSemaphoreTake+0xb2>
10004696:	3d01      	subs	r5, #1
10004698:	b2ea      	uxtb	r2, r5
1000469a:	b26d      	sxtb	r5, r5
1000469c:	2a00      	cmp	r2, #0
1000469e:	d00e      	beq.n	100046be <xQueueSemaphoreTake+0xb2>
100046a0:	6a63      	ldr	r3, [r4, #36]	; 0x24
100046a2:	2b00      	cmp	r3, #0
100046a4:	d00b      	beq.n	100046be <xQueueSemaphoreTake+0xb2>
100046a6:	0030      	movs	r0, r6
100046a8:	f7fe fb0a 	bl	10002cc0 <xTaskRemoveFromEventList>
100046ac:	2800      	cmp	r0, #0
100046ae:	d0f2      	beq.n	10004696 <xQueueSemaphoreTake+0x8a>
100046b0:	3d01      	subs	r5, #1
100046b2:	f7fe fc03 	bl	10002ebc <vTaskMissedYield>
100046b6:	b2ea      	uxtb	r2, r5
100046b8:	b26d      	sxtb	r5, r5
100046ba:	2a00      	cmp	r2, #0
100046bc:	d1f0      	bne.n	100046a0 <xQueueSemaphoreTake+0x94>
100046be:	2345      	movs	r3, #69	; 0x45
100046c0:	22ff      	movs	r2, #255	; 0xff
100046c2:	54e2      	strb	r2, [r4, r3]
100046c4:	f7ff f95a 	bl	1000397c <vPortExitCritical>
100046c8:	f7ff f94c 	bl	10003964 <vPortEnterCritical>
100046cc:	5de5      	ldrb	r5, [r4, r7]
100046ce:	b26d      	sxtb	r5, r5
100046d0:	2d00      	cmp	r5, #0
100046d2:	dd17      	ble.n	10004704 <xQueueSemaphoreTake+0xf8>
100046d4:	2310      	movs	r3, #16
100046d6:	4698      	mov	r8, r3
100046d8:	44a0      	add	r8, r4
100046da:	e004      	b.n	100046e6 <xQueueSemaphoreTake+0xda>
100046dc:	3d01      	subs	r5, #1
100046de:	b2ea      	uxtb	r2, r5
100046e0:	b26d      	sxtb	r5, r5
100046e2:	2a00      	cmp	r2, #0
100046e4:	d00e      	beq.n	10004704 <xQueueSemaphoreTake+0xf8>
100046e6:	6923      	ldr	r3, [r4, #16]
100046e8:	2b00      	cmp	r3, #0
100046ea:	d00b      	beq.n	10004704 <xQueueSemaphoreTake+0xf8>
100046ec:	4640      	mov	r0, r8
100046ee:	f7fe fae7 	bl	10002cc0 <xTaskRemoveFromEventList>
100046f2:	2800      	cmp	r0, #0
100046f4:	d0f2      	beq.n	100046dc <xQueueSemaphoreTake+0xd0>
100046f6:	3d01      	subs	r5, #1
100046f8:	f7fe fbe0 	bl	10002ebc <vTaskMissedYield>
100046fc:	b2ea      	uxtb	r2, r5
100046fe:	b26d      	sxtb	r5, r5
10004700:	2a00      	cmp	r2, #0
10004702:	d1f0      	bne.n	100046e6 <xQueueSemaphoreTake+0xda>
10004704:	23ff      	movs	r3, #255	; 0xff
10004706:	55e3      	strb	r3, [r4, r7]
10004708:	f7ff f938 	bl	1000397c <vPortExitCritical>
1000470c:	f7fe f864 	bl	100027d8 <xTaskResumeAll>
10004710:	2800      	cmp	r0, #0
10004712:	d14e      	bne.n	100047b2 <xQueueSemaphoreTake+0x1a6>
10004714:	f7ff f91a 	bl	1000394c <vPortYield>
10004718:	e04b      	b.n	100047b2 <xQueueSemaphoreTake+0x1a6>
1000471a:	f7ff f923 	bl	10003964 <vPortEnterCritical>
1000471e:	2345      	movs	r3, #69	; 0x45
10004720:	5ce5      	ldrb	r5, [r4, r3]
10004722:	b26d      	sxtb	r5, r5
10004724:	2d00      	cmp	r5, #0
10004726:	dc05      	bgt.n	10004734 <xQueueSemaphoreTake+0x128>
10004728:	e013      	b.n	10004752 <xQueueSemaphoreTake+0x146>
1000472a:	3d01      	subs	r5, #1
1000472c:	b2ea      	uxtb	r2, r5
1000472e:	b26d      	sxtb	r5, r5
10004730:	2a00      	cmp	r2, #0
10004732:	d00e      	beq.n	10004752 <xQueueSemaphoreTake+0x146>
10004734:	6a63      	ldr	r3, [r4, #36]	; 0x24
10004736:	2b00      	cmp	r3, #0
10004738:	d00b      	beq.n	10004752 <xQueueSemaphoreTake+0x146>
1000473a:	0030      	movs	r0, r6
1000473c:	f7fe fac0 	bl	10002cc0 <xTaskRemoveFromEventList>
10004740:	2800      	cmp	r0, #0
10004742:	d0f2      	beq.n	1000472a <xQueueSemaphoreTake+0x11e>
10004744:	3d01      	subs	r5, #1
10004746:	f7fe fbb9 	bl	10002ebc <vTaskMissedYield>
1000474a:	b2ea      	uxtb	r2, r5
1000474c:	b26d      	sxtb	r5, r5
1000474e:	2a00      	cmp	r2, #0
10004750:	d1f0      	bne.n	10004734 <xQueueSemaphoreTake+0x128>
10004752:	2345      	movs	r3, #69	; 0x45
10004754:	22ff      	movs	r2, #255	; 0xff
10004756:	54e2      	strb	r2, [r4, r3]
10004758:	f7ff f910 	bl	1000397c <vPortExitCritical>
1000475c:	f7ff f902 	bl	10003964 <vPortEnterCritical>
10004760:	5de5      	ldrb	r5, [r4, r7]
10004762:	b26d      	sxtb	r5, r5
10004764:	2d00      	cmp	r5, #0
10004766:	dd17      	ble.n	10004798 <xQueueSemaphoreTake+0x18c>
10004768:	2310      	movs	r3, #16
1000476a:	4698      	mov	r8, r3
1000476c:	44a0      	add	r8, r4
1000476e:	e004      	b.n	1000477a <xQueueSemaphoreTake+0x16e>
10004770:	3d01      	subs	r5, #1
10004772:	b2ea      	uxtb	r2, r5
10004774:	b26d      	sxtb	r5, r5
10004776:	2a00      	cmp	r2, #0
10004778:	d00e      	beq.n	10004798 <xQueueSemaphoreTake+0x18c>
1000477a:	6923      	ldr	r3, [r4, #16]
1000477c:	2b00      	cmp	r3, #0
1000477e:	d00b      	beq.n	10004798 <xQueueSemaphoreTake+0x18c>
10004780:	4640      	mov	r0, r8
10004782:	f7fe fa9d 	bl	10002cc0 <xTaskRemoveFromEventList>
10004786:	2800      	cmp	r0, #0
10004788:	d0f2      	beq.n	10004770 <xQueueSemaphoreTake+0x164>
1000478a:	3d01      	subs	r5, #1
1000478c:	f7fe fb96 	bl	10002ebc <vTaskMissedYield>
10004790:	b2ea      	uxtb	r2, r5
10004792:	b26d      	sxtb	r5, r5
10004794:	2a00      	cmp	r2, #0
10004796:	d1f0      	bne.n	1000477a <xQueueSemaphoreTake+0x16e>
10004798:	23ff      	movs	r3, #255	; 0xff
1000479a:	55e3      	strb	r3, [r4, r7]
1000479c:	f7ff f8ee 	bl	1000397c <vPortExitCritical>
100047a0:	f7fe f81a 	bl	100027d8 <xTaskResumeAll>
100047a4:	f7ff f8de 	bl	10003964 <vPortEnterCritical>
100047a8:	6ba3      	ldr	r3, [r4, #56]	; 0x38
100047aa:	2b00      	cmp	r3, #0
100047ac:	d00a      	beq.n	100047c4 <xQueueSemaphoreTake+0x1b8>
100047ae:	f7ff f8e5 	bl	1000397c <vPortExitCritical>
100047b2:	f7ff f8d7 	bl	10003964 <vPortEnterCritical>
100047b6:	6ba3      	ldr	r3, [r4, #56]	; 0x38
100047b8:	2b00      	cmp	r3, #0
100047ba:	d156      	bne.n	1000486a <xQueueSemaphoreTake+0x25e>
100047bc:	9b01      	ldr	r3, [sp, #4]
100047be:	2b00      	cmp	r3, #0
100047c0:	d000      	beq.n	100047c4 <xQueueSemaphoreTake+0x1b8>
100047c2:	e739      	b.n	10004638 <xQueueSemaphoreTake+0x2c>
100047c4:	f7ff f8da 	bl	1000397c <vPortExitCritical>
100047c8:	2000      	movs	r0, #0
100047ca:	b004      	add	sp, #16
100047cc:	bc04      	pop	{r2}
100047ce:	4690      	mov	r8, r2
100047d0:	bdf0      	pop	{r4, r5, r6, r7, pc}
100047d2:	f7ff f8d3 	bl	1000397c <vPortExitCritical>
100047d6:	f7ff f8c5 	bl	10003964 <vPortEnterCritical>
100047da:	2345      	movs	r3, #69	; 0x45
100047dc:	5ce5      	ldrb	r5, [r4, r3]
100047de:	b26d      	sxtb	r5, r5
100047e0:	2d00      	cmp	r5, #0
100047e2:	dc05      	bgt.n	100047f0 <xQueueSemaphoreTake+0x1e4>
100047e4:	e013      	b.n	1000480e <xQueueSemaphoreTake+0x202>
100047e6:	3d01      	subs	r5, #1
100047e8:	b2ea      	uxtb	r2, r5
100047ea:	b26d      	sxtb	r5, r5
100047ec:	2a00      	cmp	r2, #0
100047ee:	d00e      	beq.n	1000480e <xQueueSemaphoreTake+0x202>
100047f0:	6a63      	ldr	r3, [r4, #36]	; 0x24
100047f2:	2b00      	cmp	r3, #0
100047f4:	d00b      	beq.n	1000480e <xQueueSemaphoreTake+0x202>
100047f6:	0030      	movs	r0, r6
100047f8:	f7fe fa62 	bl	10002cc0 <xTaskRemoveFromEventList>
100047fc:	2800      	cmp	r0, #0
100047fe:	d0f2      	beq.n	100047e6 <xQueueSemaphoreTake+0x1da>
10004800:	3d01      	subs	r5, #1
10004802:	f7fe fb5b 	bl	10002ebc <vTaskMissedYield>
10004806:	b2ea      	uxtb	r2, r5
10004808:	b26d      	sxtb	r5, r5
1000480a:	2a00      	cmp	r2, #0
1000480c:	d1f0      	bne.n	100047f0 <xQueueSemaphoreTake+0x1e4>
1000480e:	2345      	movs	r3, #69	; 0x45
10004810:	22ff      	movs	r2, #255	; 0xff
10004812:	54e2      	strb	r2, [r4, r3]
10004814:	f7ff f8b2 	bl	1000397c <vPortExitCritical>
10004818:	f7ff f8a4 	bl	10003964 <vPortEnterCritical>
1000481c:	5de5      	ldrb	r5, [r4, r7]
1000481e:	b26d      	sxtb	r5, r5
10004820:	2d00      	cmp	r5, #0
10004822:	dd17      	ble.n	10004854 <xQueueSemaphoreTake+0x248>
10004824:	2310      	movs	r3, #16
10004826:	4698      	mov	r8, r3
10004828:	44a0      	add	r8, r4
1000482a:	e004      	b.n	10004836 <xQueueSemaphoreTake+0x22a>
1000482c:	3d01      	subs	r5, #1
1000482e:	b2ea      	uxtb	r2, r5
10004830:	b26d      	sxtb	r5, r5
10004832:	2a00      	cmp	r2, #0
10004834:	d00e      	beq.n	10004854 <xQueueSemaphoreTake+0x248>
10004836:	6923      	ldr	r3, [r4, #16]
10004838:	2b00      	cmp	r3, #0
1000483a:	d00b      	beq.n	10004854 <xQueueSemaphoreTake+0x248>
1000483c:	4640      	mov	r0, r8
1000483e:	f7fe fa3f 	bl	10002cc0 <xTaskRemoveFromEventList>
10004842:	2800      	cmp	r0, #0
10004844:	d0f2      	beq.n	1000482c <xQueueSemaphoreTake+0x220>
10004846:	3d01      	subs	r5, #1
10004848:	f7fe fb38 	bl	10002ebc <vTaskMissedYield>
1000484c:	b2ea      	uxtb	r2, r5
1000484e:	b26d      	sxtb	r5, r5
10004850:	2a00      	cmp	r2, #0
10004852:	d1f0      	bne.n	10004836 <xQueueSemaphoreTake+0x22a>
10004854:	23ff      	movs	r3, #255	; 0xff
10004856:	55e3      	strb	r3, [r4, r7]
10004858:	f7ff f890 	bl	1000397c <vPortExitCritical>
1000485c:	f7fd ffbc 	bl	100027d8 <xTaskResumeAll>
10004860:	f7ff f880 	bl	10003964 <vPortEnterCritical>
10004864:	6ba3      	ldr	r3, [r4, #56]	; 0x38
10004866:	2b00      	cmp	r3, #0
10004868:	d0a8      	beq.n	100047bc <xQueueSemaphoreTake+0x1b0>
1000486a:	3b01      	subs	r3, #1
1000486c:	63a3      	str	r3, [r4, #56]	; 0x38
1000486e:	6923      	ldr	r3, [r4, #16]
10004870:	2b00      	cmp	r3, #0
10004872:	d103      	bne.n	1000487c <xQueueSemaphoreTake+0x270>
10004874:	f7ff f882 	bl	1000397c <vPortExitCritical>
10004878:	2001      	movs	r0, #1
1000487a:	e7a6      	b.n	100047ca <xQueueSemaphoreTake+0x1be>
1000487c:	0020      	movs	r0, r4
1000487e:	3010      	adds	r0, #16
10004880:	f7fe fa1e 	bl	10002cc0 <xTaskRemoveFromEventList>
10004884:	2800      	cmp	r0, #0
10004886:	d0f5      	beq.n	10004874 <xQueueSemaphoreTake+0x268>
10004888:	f7ff f860 	bl	1000394c <vPortYield>
1000488c:	e7f2      	b.n	10004874 <xQueueSemaphoreTake+0x268>
1000488e:	46c0      	nop			; (mov r8, r8)

10004890 <xQueuePeek>:
10004890:	b5f0      	push	{r4, r5, r6, r7, lr}
10004892:	46ce      	mov	lr, r9
10004894:	4647      	mov	r7, r8
10004896:	0004      	movs	r4, r0
10004898:	b580      	push	{r7, lr}
1000489a:	b085      	sub	sp, #20
1000489c:	4688      	mov	r8, r1
1000489e:	9201      	str	r2, [sp, #4]
100048a0:	f7ff f860 	bl	10003964 <vPortEnterCritical>
100048a4:	6ba3      	ldr	r3, [r4, #56]	; 0x38
100048a6:	2b00      	cmp	r3, #0
100048a8:	d000      	beq.n	100048ac <xQueuePeek+0x1c>
100048aa:	e11f      	b.n	10004aec <xQueuePeek+0x25c>
100048ac:	9b01      	ldr	r3, [sp, #4]
100048ae:	2b00      	cmp	r3, #0
100048b0:	d100      	bne.n	100048b4 <xQueuePeek+0x24>
100048b2:	e0cb      	b.n	10004a4c <xQueuePeek+0x1bc>
100048b4:	0026      	movs	r6, r4
100048b6:	a802      	add	r0, sp, #8
100048b8:	f7fe fac6 	bl	10002e48 <vTaskInternalSetTimeOutState>
100048bc:	2744      	movs	r7, #68	; 0x44
100048be:	3624      	adds	r6, #36	; 0x24
100048c0:	f7ff f85c 	bl	1000397c <vPortExitCritical>
100048c4:	f7fd ff80 	bl	100027c8 <vTaskSuspendAll>
100048c8:	f7ff f84c 	bl	10003964 <vPortEnterCritical>
100048cc:	5de3      	ldrb	r3, [r4, r7]
100048ce:	b25b      	sxtb	r3, r3
100048d0:	3301      	adds	r3, #1
100048d2:	d101      	bne.n	100048d8 <xQueuePeek+0x48>
100048d4:	2300      	movs	r3, #0
100048d6:	55e3      	strb	r3, [r4, r7]
100048d8:	2245      	movs	r2, #69	; 0x45
100048da:	5ca3      	ldrb	r3, [r4, r2]
100048dc:	b25b      	sxtb	r3, r3
100048de:	3301      	adds	r3, #1
100048e0:	d101      	bne.n	100048e6 <xQueuePeek+0x56>
100048e2:	2300      	movs	r3, #0
100048e4:	54a3      	strb	r3, [r4, r2]
100048e6:	f7ff f849 	bl	1000397c <vPortExitCritical>
100048ea:	a901      	add	r1, sp, #4
100048ec:	a802      	add	r0, sp, #8
100048ee:	f7fe fab7 	bl	10002e60 <xTaskCheckForTimeOut>
100048f2:	2800      	cmp	r0, #0
100048f4:	d155      	bne.n	100049a2 <xQueuePeek+0x112>
100048f6:	f7ff f835 	bl	10003964 <vPortEnterCritical>
100048fa:	6ba3      	ldr	r3, [r4, #56]	; 0x38
100048fc:	2b00      	cmp	r3, #0
100048fe:	d000      	beq.n	10004902 <xQueuePeek+0x72>
10004900:	e0ac      	b.n	10004a5c <xQueuePeek+0x1cc>
10004902:	f7ff f83b 	bl	1000397c <vPortExitCritical>
10004906:	0030      	movs	r0, r6
10004908:	9901      	ldr	r1, [sp, #4]
1000490a:	f7fe f8f7 	bl	10002afc <vTaskPlaceOnEventList>
1000490e:	f7ff f829 	bl	10003964 <vPortEnterCritical>
10004912:	2345      	movs	r3, #69	; 0x45
10004914:	5ce5      	ldrb	r5, [r4, r3]
10004916:	b26d      	sxtb	r5, r5
10004918:	2d00      	cmp	r5, #0
1000491a:	dc05      	bgt.n	10004928 <xQueuePeek+0x98>
1000491c:	e013      	b.n	10004946 <xQueuePeek+0xb6>
1000491e:	3d01      	subs	r5, #1
10004920:	b2ea      	uxtb	r2, r5
10004922:	b26d      	sxtb	r5, r5
10004924:	2a00      	cmp	r2, #0
10004926:	d00e      	beq.n	10004946 <xQueuePeek+0xb6>
10004928:	6a63      	ldr	r3, [r4, #36]	; 0x24
1000492a:	2b00      	cmp	r3, #0
1000492c:	d00b      	beq.n	10004946 <xQueuePeek+0xb6>
1000492e:	0030      	movs	r0, r6
10004930:	f7fe f9c6 	bl	10002cc0 <xTaskRemoveFromEventList>
10004934:	2800      	cmp	r0, #0
10004936:	d0f2      	beq.n	1000491e <xQueuePeek+0x8e>
10004938:	3d01      	subs	r5, #1
1000493a:	f7fe fabf 	bl	10002ebc <vTaskMissedYield>
1000493e:	b2ea      	uxtb	r2, r5
10004940:	b26d      	sxtb	r5, r5
10004942:	2a00      	cmp	r2, #0
10004944:	d1f0      	bne.n	10004928 <xQueuePeek+0x98>
10004946:	2345      	movs	r3, #69	; 0x45
10004948:	22ff      	movs	r2, #255	; 0xff
1000494a:	54e2      	strb	r2, [r4, r3]
1000494c:	f7ff f816 	bl	1000397c <vPortExitCritical>
10004950:	f7ff f808 	bl	10003964 <vPortEnterCritical>
10004954:	2310      	movs	r3, #16
10004956:	4699      	mov	r9, r3
10004958:	5de5      	ldrb	r5, [r4, r7]
1000495a:	44a1      	add	r9, r4
1000495c:	b26d      	sxtb	r5, r5
1000495e:	2d00      	cmp	r5, #0
10004960:	dc05      	bgt.n	1000496e <xQueuePeek+0xde>
10004962:	e013      	b.n	1000498c <xQueuePeek+0xfc>
10004964:	3d01      	subs	r5, #1
10004966:	b2ea      	uxtb	r2, r5
10004968:	b26d      	sxtb	r5, r5
1000496a:	2a00      	cmp	r2, #0
1000496c:	d00e      	beq.n	1000498c <xQueuePeek+0xfc>
1000496e:	6923      	ldr	r3, [r4, #16]
10004970:	2b00      	cmp	r3, #0
10004972:	d00b      	beq.n	1000498c <xQueuePeek+0xfc>
10004974:	4648      	mov	r0, r9
10004976:	f7fe f9a3 	bl	10002cc0 <xTaskRemoveFromEventList>
1000497a:	2800      	cmp	r0, #0
1000497c:	d0f2      	beq.n	10004964 <xQueuePeek+0xd4>
1000497e:	3d01      	subs	r5, #1
10004980:	f7fe fa9c 	bl	10002ebc <vTaskMissedYield>
10004984:	b2ea      	uxtb	r2, r5
10004986:	b26d      	sxtb	r5, r5
10004988:	2a00      	cmp	r2, #0
1000498a:	d1f0      	bne.n	1000496e <xQueuePeek+0xde>
1000498c:	23ff      	movs	r3, #255	; 0xff
1000498e:	55e3      	strb	r3, [r4, r7]
10004990:	f7fe fff4 	bl	1000397c <vPortExitCritical>
10004994:	f7fd ff20 	bl	100027d8 <xTaskResumeAll>
10004998:	2800      	cmp	r0, #0
1000499a:	d14e      	bne.n	10004a3a <xQueuePeek+0x1aa>
1000499c:	f7fe ffd6 	bl	1000394c <vPortYield>
100049a0:	e04b      	b.n	10004a3a <xQueuePeek+0x1aa>
100049a2:	f7fe ffdf 	bl	10003964 <vPortEnterCritical>
100049a6:	2345      	movs	r3, #69	; 0x45
100049a8:	5ce5      	ldrb	r5, [r4, r3]
100049aa:	b26d      	sxtb	r5, r5
100049ac:	2d00      	cmp	r5, #0
100049ae:	dc05      	bgt.n	100049bc <xQueuePeek+0x12c>
100049b0:	e013      	b.n	100049da <xQueuePeek+0x14a>
100049b2:	3d01      	subs	r5, #1
100049b4:	b2ea      	uxtb	r2, r5
100049b6:	b26d      	sxtb	r5, r5
100049b8:	2a00      	cmp	r2, #0
100049ba:	d00e      	beq.n	100049da <xQueuePeek+0x14a>
100049bc:	6a63      	ldr	r3, [r4, #36]	; 0x24
100049be:	2b00      	cmp	r3, #0
100049c0:	d00b      	beq.n	100049da <xQueuePeek+0x14a>
100049c2:	0030      	movs	r0, r6
100049c4:	f7fe f97c 	bl	10002cc0 <xTaskRemoveFromEventList>
100049c8:	2800      	cmp	r0, #0
100049ca:	d0f2      	beq.n	100049b2 <xQueuePeek+0x122>
100049cc:	3d01      	subs	r5, #1
100049ce:	f7fe fa75 	bl	10002ebc <vTaskMissedYield>
100049d2:	b2ea      	uxtb	r2, r5
100049d4:	b26d      	sxtb	r5, r5
100049d6:	2a00      	cmp	r2, #0
100049d8:	d1f0      	bne.n	100049bc <xQueuePeek+0x12c>
100049da:	2345      	movs	r3, #69	; 0x45
100049dc:	22ff      	movs	r2, #255	; 0xff
100049de:	54e2      	strb	r2, [r4, r3]
100049e0:	f7fe ffcc 	bl	1000397c <vPortExitCritical>
100049e4:	f7fe ffbe 	bl	10003964 <vPortEnterCritical>
100049e8:	2310      	movs	r3, #16
100049ea:	4699      	mov	r9, r3
100049ec:	5de5      	ldrb	r5, [r4, r7]
100049ee:	44a1      	add	r9, r4
100049f0:	b26d      	sxtb	r5, r5
100049f2:	2d00      	cmp	r5, #0
100049f4:	dc05      	bgt.n	10004a02 <xQueuePeek+0x172>
100049f6:	e013      	b.n	10004a20 <xQueuePeek+0x190>
100049f8:	3d01      	subs	r5, #1
100049fa:	b2ea      	uxtb	r2, r5
100049fc:	b26d      	sxtb	r5, r5
100049fe:	2a00      	cmp	r2, #0
10004a00:	d00e      	beq.n	10004a20 <xQueuePeek+0x190>
10004a02:	6923      	ldr	r3, [r4, #16]
10004a04:	2b00      	cmp	r3, #0
10004a06:	d00b      	beq.n	10004a20 <xQueuePeek+0x190>
10004a08:	4648      	mov	r0, r9
10004a0a:	f7fe f959 	bl	10002cc0 <xTaskRemoveFromEventList>
10004a0e:	2800      	cmp	r0, #0
10004a10:	d0f2      	beq.n	100049f8 <xQueuePeek+0x168>
10004a12:	3d01      	subs	r5, #1
10004a14:	f7fe fa52 	bl	10002ebc <vTaskMissedYield>
10004a18:	b2ea      	uxtb	r2, r5
10004a1a:	b26d      	sxtb	r5, r5
10004a1c:	2a00      	cmp	r2, #0
10004a1e:	d1f0      	bne.n	10004a02 <xQueuePeek+0x172>
10004a20:	23ff      	movs	r3, #255	; 0xff
10004a22:	55e3      	strb	r3, [r4, r7]
10004a24:	f7fe ffaa 	bl	1000397c <vPortExitCritical>
10004a28:	f7fd fed6 	bl	100027d8 <xTaskResumeAll>
10004a2c:	f7fe ff9a 	bl	10003964 <vPortEnterCritical>
10004a30:	6ba3      	ldr	r3, [r4, #56]	; 0x38
10004a32:	2b00      	cmp	r3, #0
10004a34:	d00a      	beq.n	10004a4c <xQueuePeek+0x1bc>
10004a36:	f7fe ffa1 	bl	1000397c <vPortExitCritical>
10004a3a:	f7fe ff93 	bl	10003964 <vPortEnterCritical>
10004a3e:	6ba3      	ldr	r3, [r4, #56]	; 0x38
10004a40:	2b00      	cmp	r3, #0
10004a42:	d153      	bne.n	10004aec <xQueuePeek+0x25c>
10004a44:	9b01      	ldr	r3, [sp, #4]
10004a46:	2b00      	cmp	r3, #0
10004a48:	d000      	beq.n	10004a4c <xQueuePeek+0x1bc>
10004a4a:	e739      	b.n	100048c0 <xQueuePeek+0x30>
10004a4c:	f7fe ff96 	bl	1000397c <vPortExitCritical>
10004a50:	2000      	movs	r0, #0
10004a52:	b005      	add	sp, #20
10004a54:	bc0c      	pop	{r2, r3}
10004a56:	4690      	mov	r8, r2
10004a58:	4699      	mov	r9, r3
10004a5a:	bdf0      	pop	{r4, r5, r6, r7, pc}
10004a5c:	f7fe ff8e 	bl	1000397c <vPortExitCritical>
10004a60:	f7fe ff80 	bl	10003964 <vPortEnterCritical>
10004a64:	2345      	movs	r3, #69	; 0x45
10004a66:	5ce5      	ldrb	r5, [r4, r3]
10004a68:	b26d      	sxtb	r5, r5
10004a6a:	2d00      	cmp	r5, #0
10004a6c:	dc05      	bgt.n	10004a7a <xQueuePeek+0x1ea>
10004a6e:	e013      	b.n	10004a98 <xQueuePeek+0x208>
10004a70:	3d01      	subs	r5, #1
10004a72:	b2ea      	uxtb	r2, r5
10004a74:	b26d      	sxtb	r5, r5
10004a76:	2a00      	cmp	r2, #0
10004a78:	d00e      	beq.n	10004a98 <xQueuePeek+0x208>
10004a7a:	6a63      	ldr	r3, [r4, #36]	; 0x24
10004a7c:	2b00      	cmp	r3, #0
10004a7e:	d00b      	beq.n	10004a98 <xQueuePeek+0x208>
10004a80:	0030      	movs	r0, r6
10004a82:	f7fe f91d 	bl	10002cc0 <xTaskRemoveFromEventList>
10004a86:	2800      	cmp	r0, #0
10004a88:	d0f2      	beq.n	10004a70 <xQueuePeek+0x1e0>
10004a8a:	3d01      	subs	r5, #1
10004a8c:	f7fe fa16 	bl	10002ebc <vTaskMissedYield>
10004a90:	b2ea      	uxtb	r2, r5
10004a92:	b26d      	sxtb	r5, r5
10004a94:	2a00      	cmp	r2, #0
10004a96:	d1f0      	bne.n	10004a7a <xQueuePeek+0x1ea>
10004a98:	2345      	movs	r3, #69	; 0x45
10004a9a:	22ff      	movs	r2, #255	; 0xff
10004a9c:	54e2      	strb	r2, [r4, r3]
10004a9e:	f7fe ff6d 	bl	1000397c <vPortExitCritical>
10004aa2:	f7fe ff5f 	bl	10003964 <vPortEnterCritical>
10004aa6:	2310      	movs	r3, #16
10004aa8:	4699      	mov	r9, r3
10004aaa:	5de5      	ldrb	r5, [r4, r7]
10004aac:	44a1      	add	r9, r4
10004aae:	b26d      	sxtb	r5, r5
10004ab0:	2d00      	cmp	r5, #0
10004ab2:	dc05      	bgt.n	10004ac0 <xQueuePeek+0x230>
10004ab4:	e013      	b.n	10004ade <xQueuePeek+0x24e>
10004ab6:	3d01      	subs	r5, #1
10004ab8:	b2ea      	uxtb	r2, r5
10004aba:	b26d      	sxtb	r5, r5
10004abc:	2a00      	cmp	r2, #0
10004abe:	d00e      	beq.n	10004ade <xQueuePeek+0x24e>
10004ac0:	6923      	ldr	r3, [r4, #16]
10004ac2:	2b00      	cmp	r3, #0
10004ac4:	d00b      	beq.n	10004ade <xQueuePeek+0x24e>
10004ac6:	4648      	mov	r0, r9
10004ac8:	f7fe f8fa 	bl	10002cc0 <xTaskRemoveFromEventList>
10004acc:	2800      	cmp	r0, #0
10004ace:	d0f2      	beq.n	10004ab6 <xQueuePeek+0x226>
10004ad0:	3d01      	subs	r5, #1
10004ad2:	f7fe f9f3 	bl	10002ebc <vTaskMissedYield>
10004ad6:	b2ea      	uxtb	r2, r5
10004ad8:	b26d      	sxtb	r5, r5
10004ada:	2a00      	cmp	r2, #0
10004adc:	d1f0      	bne.n	10004ac0 <xQueuePeek+0x230>
10004ade:	23ff      	movs	r3, #255	; 0xff
10004ae0:	55e3      	strb	r3, [r4, r7]
10004ae2:	f7fe ff4b 	bl	1000397c <vPortExitCritical>
10004ae6:	f7fd fe77 	bl	100027d8 <xTaskResumeAll>
10004aea:	e7a6      	b.n	10004a3a <xQueuePeek+0x1aa>
10004aec:	6c22      	ldr	r2, [r4, #64]	; 0x40
10004aee:	68e5      	ldr	r5, [r4, #12]
10004af0:	2a00      	cmp	r2, #0
10004af2:	d007      	beq.n	10004b04 <xQueuePeek+0x274>
10004af4:	68a3      	ldr	r3, [r4, #8]
10004af6:	18a9      	adds	r1, r5, r2
10004af8:	60e1      	str	r1, [r4, #12]
10004afa:	4299      	cmp	r1, r3
10004afc:	d20a      	bcs.n	10004b14 <xQueuePeek+0x284>
10004afe:	4640      	mov	r0, r8
10004b00:	f7fc ffbe 	bl	10001a80 <__wrap___aeabi_memcpy>
10004b04:	6a63      	ldr	r3, [r4, #36]	; 0x24
10004b06:	60e5      	str	r5, [r4, #12]
10004b08:	2b00      	cmp	r3, #0
10004b0a:	d106      	bne.n	10004b1a <xQueuePeek+0x28a>
10004b0c:	f7fe ff36 	bl	1000397c <vPortExitCritical>
10004b10:	2001      	movs	r0, #1
10004b12:	e79e      	b.n	10004a52 <xQueuePeek+0x1c2>
10004b14:	6821      	ldr	r1, [r4, #0]
10004b16:	60e1      	str	r1, [r4, #12]
10004b18:	e7f1      	b.n	10004afe <xQueuePeek+0x26e>
10004b1a:	0020      	movs	r0, r4
10004b1c:	3024      	adds	r0, #36	; 0x24
10004b1e:	f7fe f8cf 	bl	10002cc0 <xTaskRemoveFromEventList>
10004b22:	2800      	cmp	r0, #0
10004b24:	d0f2      	beq.n	10004b0c <xQueuePeek+0x27c>
10004b26:	f7fe ff11 	bl	1000394c <vPortYield>
10004b2a:	e7ef      	b.n	10004b0c <xQueuePeek+0x27c>

10004b2c <xQueueReceiveFromISR>:
10004b2c:	b5f8      	push	{r3, r4, r5, r6, r7, lr}
10004b2e:	46ce      	mov	lr, r9
10004b30:	4647      	mov	r7, r8
10004b32:	0004      	movs	r4, r0
10004b34:	b580      	push	{r7, lr}
10004b36:	4689      	mov	r9, r1
10004b38:	4690      	mov	r8, r2
10004b3a:	f7fe ff29 	bl	10003990 <ulSetInterruptMaskFromISR>
10004b3e:	6ba6      	ldr	r6, [r4, #56]	; 0x38
10004b40:	0005      	movs	r5, r0
10004b42:	2700      	movs	r7, #0
10004b44:	2e00      	cmp	r6, #0
10004b46:	d107      	bne.n	10004b58 <xQueueReceiveFromISR+0x2c>
10004b48:	0028      	movs	r0, r5
10004b4a:	f7fe ff25 	bl	10003998 <vClearInterruptMaskFromISR>
10004b4e:	0038      	movs	r0, r7
10004b50:	bc0c      	pop	{r2, r3}
10004b52:	4690      	mov	r8, r2
10004b54:	4699      	mov	r9, r3
10004b56:	bdf8      	pop	{r3, r4, r5, r6, r7, pc}
10004b58:	2344      	movs	r3, #68	; 0x44
10004b5a:	6c22      	ldr	r2, [r4, #64]	; 0x40
10004b5c:	5ce7      	ldrb	r7, [r4, r3]
10004b5e:	b27f      	sxtb	r7, r7
10004b60:	2a00      	cmp	r2, #0
10004b62:	d00a      	beq.n	10004b7a <xQueueReceiveFromISR+0x4e>
10004b64:	68e3      	ldr	r3, [r4, #12]
10004b66:	1899      	adds	r1, r3, r2
10004b68:	68a3      	ldr	r3, [r4, #8]
10004b6a:	60e1      	str	r1, [r4, #12]
10004b6c:	4299      	cmp	r1, r3
10004b6e:	d301      	bcc.n	10004b74 <xQueueReceiveFromISR+0x48>
10004b70:	6821      	ldr	r1, [r4, #0]
10004b72:	60e1      	str	r1, [r4, #12]
10004b74:	4648      	mov	r0, r9
10004b76:	f7fc ff83 	bl	10001a80 <__wrap___aeabi_memcpy>
10004b7a:	3e01      	subs	r6, #1
10004b7c:	63a6      	str	r6, [r4, #56]	; 0x38
10004b7e:	1c7b      	adds	r3, r7, #1
10004b80:	d104      	bne.n	10004b8c <xQueueReceiveFromISR+0x60>
10004b82:	6923      	ldr	r3, [r4, #16]
10004b84:	2b00      	cmp	r3, #0
10004b86:	d10b      	bne.n	10004ba0 <xQueueReceiveFromISR+0x74>
10004b88:	2701      	movs	r7, #1
10004b8a:	e7dd      	b.n	10004b48 <xQueueReceiveFromISR+0x1c>
10004b8c:	f7fd ff3c 	bl	10002a08 <uxTaskGetNumberOfTasks>
10004b90:	4287      	cmp	r7, r0
10004b92:	d2f9      	bcs.n	10004b88 <xQueueReceiveFromISR+0x5c>
10004b94:	2344      	movs	r3, #68	; 0x44
10004b96:	3701      	adds	r7, #1
10004b98:	b27f      	sxtb	r7, r7
10004b9a:	54e7      	strb	r7, [r4, r3]
10004b9c:	2701      	movs	r7, #1
10004b9e:	e7d3      	b.n	10004b48 <xQueueReceiveFromISR+0x1c>
10004ba0:	0020      	movs	r0, r4
10004ba2:	3010      	adds	r0, #16
10004ba4:	f7fe f88c 	bl	10002cc0 <xTaskRemoveFromEventList>
10004ba8:	2800      	cmp	r0, #0
10004baa:	d0ed      	beq.n	10004b88 <xQueueReceiveFromISR+0x5c>
10004bac:	4643      	mov	r3, r8
10004bae:	2b00      	cmp	r3, #0
10004bb0:	d0ea      	beq.n	10004b88 <xQueueReceiveFromISR+0x5c>
10004bb2:	2301      	movs	r3, #1
10004bb4:	4642      	mov	r2, r8
10004bb6:	2701      	movs	r7, #1
10004bb8:	6013      	str	r3, [r2, #0]
10004bba:	e7c5      	b.n	10004b48 <xQueueReceiveFromISR+0x1c>

10004bbc <xQueuePeekFromISR>:
10004bbc:	b5f8      	push	{r3, r4, r5, r6, r7, lr}
10004bbe:	0004      	movs	r4, r0
10004bc0:	000f      	movs	r7, r1
10004bc2:	f7fe fee5 	bl	10003990 <ulSetInterruptMaskFromISR>
10004bc6:	6ba3      	ldr	r3, [r4, #56]	; 0x38
10004bc8:	0005      	movs	r5, r0
10004bca:	2600      	movs	r6, #0
10004bcc:	2b00      	cmp	r3, #0
10004bce:	d104      	bne.n	10004bda <xQueuePeekFromISR+0x1e>
10004bd0:	0028      	movs	r0, r5
10004bd2:	f7fe fee1 	bl	10003998 <vClearInterruptMaskFromISR>
10004bd6:	0030      	movs	r0, r6
10004bd8:	bdf8      	pop	{r3, r4, r5, r6, r7, pc}
10004bda:	6c22      	ldr	r2, [r4, #64]	; 0x40
10004bdc:	68e6      	ldr	r6, [r4, #12]
10004bde:	2a00      	cmp	r2, #0
10004be0:	d009      	beq.n	10004bf6 <xQueuePeekFromISR+0x3a>
10004be2:	68a3      	ldr	r3, [r4, #8]
10004be4:	18b1      	adds	r1, r6, r2
10004be6:	60e1      	str	r1, [r4, #12]
10004be8:	4299      	cmp	r1, r3
10004bea:	d301      	bcc.n	10004bf0 <xQueuePeekFromISR+0x34>
10004bec:	6821      	ldr	r1, [r4, #0]
10004bee:	60e1      	str	r1, [r4, #12]
10004bf0:	0038      	movs	r0, r7
10004bf2:	f7fc ff45 	bl	10001a80 <__wrap___aeabi_memcpy>
10004bf6:	60e6      	str	r6, [r4, #12]
10004bf8:	2601      	movs	r6, #1
10004bfa:	e7e9      	b.n	10004bd0 <xQueuePeekFromISR+0x14>

10004bfc <uxQueueMessagesWaiting>:
10004bfc:	b510      	push	{r4, lr}
10004bfe:	0004      	movs	r4, r0
10004c00:	f7fe feb0 	bl	10003964 <vPortEnterCritical>
10004c04:	6ba4      	ldr	r4, [r4, #56]	; 0x38
10004c06:	f7fe feb9 	bl	1000397c <vPortExitCritical>
10004c0a:	0020      	movs	r0, r4
10004c0c:	bd10      	pop	{r4, pc}
10004c0e:	46c0      	nop			; (mov r8, r8)

10004c10 <uxQueueSpacesAvailable>:
10004c10:	b510      	push	{r4, lr}
10004c12:	0004      	movs	r4, r0
10004c14:	f7fe fea6 	bl	10003964 <vPortEnterCritical>
10004c18:	6ba3      	ldr	r3, [r4, #56]	; 0x38
10004c1a:	6be4      	ldr	r4, [r4, #60]	; 0x3c
10004c1c:	1ae4      	subs	r4, r4, r3
10004c1e:	f7fe fead 	bl	1000397c <vPortExitCritical>
10004c22:	0020      	movs	r0, r4
10004c24:	bd10      	pop	{r4, pc}
10004c26:	46c0      	nop			; (mov r8, r8)

10004c28 <uxQueueMessagesWaitingFromISR>:
10004c28:	6b80      	ldr	r0, [r0, #56]	; 0x38
10004c2a:	4770      	bx	lr

10004c2c <vQueueDelete>:
10004c2c:	4b1d      	ldr	r3, [pc, #116]	; (10004ca4 <vQueueDelete+0x78>)
10004c2e:	b510      	push	{r4, lr}
10004c30:	685a      	ldr	r2, [r3, #4]
10004c32:	4290      	cmp	r0, r2
10004c34:	d01d      	beq.n	10004c72 <vQueueDelete+0x46>
10004c36:	68da      	ldr	r2, [r3, #12]
10004c38:	4290      	cmp	r0, r2
10004c3a:	d021      	beq.n	10004c80 <vQueueDelete+0x54>
10004c3c:	695a      	ldr	r2, [r3, #20]
10004c3e:	4290      	cmp	r0, r2
10004c40:	d020      	beq.n	10004c84 <vQueueDelete+0x58>
10004c42:	69da      	ldr	r2, [r3, #28]
10004c44:	4290      	cmp	r0, r2
10004c46:	d01f      	beq.n	10004c88 <vQueueDelete+0x5c>
10004c48:	6a5a      	ldr	r2, [r3, #36]	; 0x24
10004c4a:	4290      	cmp	r0, r2
10004c4c:	d01e      	beq.n	10004c8c <vQueueDelete+0x60>
10004c4e:	6ada      	ldr	r2, [r3, #44]	; 0x2c
10004c50:	4290      	cmp	r0, r2
10004c52:	d01d      	beq.n	10004c90 <vQueueDelete+0x64>
10004c54:	6b5a      	ldr	r2, [r3, #52]	; 0x34
10004c56:	4290      	cmp	r0, r2
10004c58:	d01c      	beq.n	10004c94 <vQueueDelete+0x68>
10004c5a:	6bda      	ldr	r2, [r3, #60]	; 0x3c
10004c5c:	4290      	cmp	r0, r2
10004c5e:	d01b      	beq.n	10004c98 <vQueueDelete+0x6c>
10004c60:	6c5a      	ldr	r2, [r3, #68]	; 0x44
10004c62:	4290      	cmp	r0, r2
10004c64:	d01a      	beq.n	10004c9c <vQueueDelete+0x70>
10004c66:	6cda      	ldr	r2, [r3, #76]	; 0x4c
10004c68:	4290      	cmp	r0, r2
10004c6a:	d019      	beq.n	10004ca0 <vQueueDelete+0x74>
10004c6c:	f7fe ff9a 	bl	10003ba4 <vPortFree>
10004c70:	bd10      	pop	{r4, pc}
10004c72:	2200      	movs	r2, #0
10004c74:	2100      	movs	r1, #0
10004c76:	00d2      	lsls	r2, r2, #3
10004c78:	5099      	str	r1, [r3, r2]
10004c7a:	189b      	adds	r3, r3, r2
10004c7c:	6059      	str	r1, [r3, #4]
10004c7e:	e7f5      	b.n	10004c6c <vQueueDelete+0x40>
10004c80:	2201      	movs	r2, #1
10004c82:	e7f7      	b.n	10004c74 <vQueueDelete+0x48>
10004c84:	2202      	movs	r2, #2
10004c86:	e7f5      	b.n	10004c74 <vQueueDelete+0x48>
10004c88:	2203      	movs	r2, #3
10004c8a:	e7f3      	b.n	10004c74 <vQueueDelete+0x48>
10004c8c:	2204      	movs	r2, #4
10004c8e:	e7f1      	b.n	10004c74 <vQueueDelete+0x48>
10004c90:	2205      	movs	r2, #5
10004c92:	e7ef      	b.n	10004c74 <vQueueDelete+0x48>
10004c94:	2206      	movs	r2, #6
10004c96:	e7ed      	b.n	10004c74 <vQueueDelete+0x48>
10004c98:	2207      	movs	r2, #7
10004c9a:	e7eb      	b.n	10004c74 <vQueueDelete+0x48>
10004c9c:	2208      	movs	r2, #8
10004c9e:	e7e9      	b.n	10004c74 <vQueueDelete+0x48>
10004ca0:	2209      	movs	r2, #9
10004ca2:	e7e7      	b.n	10004c74 <vQueueDelete+0x48>
10004ca4:	2000cab4 	.word	0x2000cab4

10004ca8 <xQueueIsQueueEmptyFromISR>:
10004ca8:	6b80      	ldr	r0, [r0, #56]	; 0x38
10004caa:	4243      	negs	r3, r0
10004cac:	4158      	adcs	r0, r3
10004cae:	4770      	bx	lr

10004cb0 <xQueueIsQueueFullFromISR>:
10004cb0:	6b83      	ldr	r3, [r0, #56]	; 0x38
10004cb2:	6bc0      	ldr	r0, [r0, #60]	; 0x3c
10004cb4:	1ac0      	subs	r0, r0, r3
10004cb6:	4243      	negs	r3, r0
10004cb8:	4158      	adcs	r0, r3
10004cba:	4770      	bx	lr

10004cbc <vQueueAddToRegistry>:
10004cbc:	b570      	push	{r4, r5, r6, lr}
10004cbe:	2900      	cmp	r1, #0
10004cc0:	d00f      	beq.n	10004ce2 <vQueueAddToRegistry+0x26>
10004cc2:	2600      	movs	r6, #0
10004cc4:	2300      	movs	r3, #0
10004cc6:	4c42      	ldr	r4, [pc, #264]	; (10004dd0 <vQueueAddToRegistry+0x114>)
10004cc8:	00da      	lsls	r2, r3, #3
10004cca:	18a5      	adds	r5, r4, r2
10004ccc:	686d      	ldr	r5, [r5, #4]
10004cce:	4285      	cmp	r5, r0
10004cd0:	d100      	bne.n	10004cd4 <vQueueAddToRegistry+0x18>
10004cd2:	e06f      	b.n	10004db4 <vQueueAddToRegistry+0xf8>
10004cd4:	2e00      	cmp	r6, #0
10004cd6:	d005      	beq.n	10004ce4 <vQueueAddToRegistry+0x28>
10004cd8:	3301      	adds	r3, #1
10004cda:	2b0a      	cmp	r3, #10
10004cdc:	d1f4      	bne.n	10004cc8 <vQueueAddToRegistry+0xc>
10004cde:	6031      	str	r1, [r6, #0]
10004ce0:	6070      	str	r0, [r6, #4]
10004ce2:	bd70      	pop	{r4, r5, r6, pc}
10004ce4:	58a5      	ldr	r5, [r4, r2]
10004ce6:	2d00      	cmp	r5, #0
10004ce8:	d061      	beq.n	10004dae <vQueueAddToRegistry+0xf2>
10004cea:	1c5d      	adds	r5, r3, #1
10004cec:	2b09      	cmp	r3, #9
10004cee:	d0f8      	beq.n	10004ce2 <vQueueAddToRegistry+0x26>
10004cf0:	00ea      	lsls	r2, r5, #3
10004cf2:	18a6      	adds	r6, r4, r2
10004cf4:	6876      	ldr	r6, [r6, #4]
10004cf6:	42b0      	cmp	r0, r6
10004cf8:	d05c      	beq.n	10004db4 <vQueueAddToRegistry+0xf8>
10004cfa:	58a6      	ldr	r6, [r4, r2]
10004cfc:	2e00      	cmp	r6, #0
10004cfe:	d05d      	beq.n	10004dbc <vQueueAddToRegistry+0x100>
10004d00:	1c9d      	adds	r5, r3, #2
10004d02:	2b08      	cmp	r3, #8
10004d04:	d0ed      	beq.n	10004ce2 <vQueueAddToRegistry+0x26>
10004d06:	00ea      	lsls	r2, r5, #3
10004d08:	18a6      	adds	r6, r4, r2
10004d0a:	6876      	ldr	r6, [r6, #4]
10004d0c:	42b0      	cmp	r0, r6
10004d0e:	d051      	beq.n	10004db4 <vQueueAddToRegistry+0xf8>
10004d10:	58a6      	ldr	r6, [r4, r2]
10004d12:	2e00      	cmp	r6, #0
10004d14:	d052      	beq.n	10004dbc <vQueueAddToRegistry+0x100>
10004d16:	1cdd      	adds	r5, r3, #3
10004d18:	2b07      	cmp	r3, #7
10004d1a:	d0e2      	beq.n	10004ce2 <vQueueAddToRegistry+0x26>
10004d1c:	00ea      	lsls	r2, r5, #3
10004d1e:	18a6      	adds	r6, r4, r2
10004d20:	6876      	ldr	r6, [r6, #4]
10004d22:	4286      	cmp	r6, r0
10004d24:	d046      	beq.n	10004db4 <vQueueAddToRegistry+0xf8>
10004d26:	58a6      	ldr	r6, [r4, r2]
10004d28:	2e00      	cmp	r6, #0
10004d2a:	d047      	beq.n	10004dbc <vQueueAddToRegistry+0x100>
10004d2c:	1d1d      	adds	r5, r3, #4
10004d2e:	2b06      	cmp	r3, #6
10004d30:	d0d7      	beq.n	10004ce2 <vQueueAddToRegistry+0x26>
10004d32:	00ea      	lsls	r2, r5, #3
10004d34:	18a6      	adds	r6, r4, r2
10004d36:	6876      	ldr	r6, [r6, #4]
10004d38:	42b0      	cmp	r0, r6
10004d3a:	d03b      	beq.n	10004db4 <vQueueAddToRegistry+0xf8>
10004d3c:	58a6      	ldr	r6, [r4, r2]
10004d3e:	2e00      	cmp	r6, #0
10004d40:	d03c      	beq.n	10004dbc <vQueueAddToRegistry+0x100>
10004d42:	1d5d      	adds	r5, r3, #5
10004d44:	2b05      	cmp	r3, #5
10004d46:	d0cc      	beq.n	10004ce2 <vQueueAddToRegistry+0x26>
10004d48:	00ea      	lsls	r2, r5, #3
10004d4a:	18a6      	adds	r6, r4, r2
10004d4c:	6876      	ldr	r6, [r6, #4]
10004d4e:	42b0      	cmp	r0, r6
10004d50:	d030      	beq.n	10004db4 <vQueueAddToRegistry+0xf8>
10004d52:	58a6      	ldr	r6, [r4, r2]
10004d54:	2e00      	cmp	r6, #0
10004d56:	d031      	beq.n	10004dbc <vQueueAddToRegistry+0x100>
10004d58:	1d9a      	adds	r2, r3, #6
10004d5a:	2b04      	cmp	r3, #4
10004d5c:	d0c1      	beq.n	10004ce2 <vQueueAddToRegistry+0x26>
10004d5e:	00d5      	lsls	r5, r2, #3
10004d60:	1966      	adds	r6, r4, r5
10004d62:	6876      	ldr	r6, [r6, #4]
10004d64:	42b0      	cmp	r0, r6
10004d66:	d024      	beq.n	10004db2 <vQueueAddToRegistry+0xf6>
10004d68:	5965      	ldr	r5, [r4, r5]
10004d6a:	2d00      	cmp	r5, #0
10004d6c:	d029      	beq.n	10004dc2 <vQueueAddToRegistry+0x106>
10004d6e:	1ddd      	adds	r5, r3, #7
10004d70:	2b03      	cmp	r3, #3
10004d72:	d0b6      	beq.n	10004ce2 <vQueueAddToRegistry+0x26>
10004d74:	00ea      	lsls	r2, r5, #3
10004d76:	18a6      	adds	r6, r4, r2
10004d78:	6876      	ldr	r6, [r6, #4]
10004d7a:	42b0      	cmp	r0, r6
10004d7c:	d01a      	beq.n	10004db4 <vQueueAddToRegistry+0xf8>
10004d7e:	58a6      	ldr	r6, [r4, r2]
10004d80:	2e00      	cmp	r6, #0
10004d82:	d01b      	beq.n	10004dbc <vQueueAddToRegistry+0x100>
10004d84:	3501      	adds	r5, #1
10004d86:	2b02      	cmp	r3, #2
10004d88:	d0ab      	beq.n	10004ce2 <vQueueAddToRegistry+0x26>
10004d8a:	00ea      	lsls	r2, r5, #3
10004d8c:	18a6      	adds	r6, r4, r2
10004d8e:	6876      	ldr	r6, [r6, #4]
10004d90:	42b0      	cmp	r0, r6
10004d92:	d00f      	beq.n	10004db4 <vQueueAddToRegistry+0xf8>
10004d94:	58a6      	ldr	r6, [r4, r2]
10004d96:	2e00      	cmp	r6, #0
10004d98:	d010      	beq.n	10004dbc <vQueueAddToRegistry+0x100>
10004d9a:	2b01      	cmp	r3, #1
10004d9c:	d0a1      	beq.n	10004ce2 <vQueueAddToRegistry+0x26>
10004d9e:	6ce3      	ldr	r3, [r4, #76]	; 0x4c
10004da0:	4298      	cmp	r0, r3
10004da2:	d012      	beq.n	10004dca <vQueueAddToRegistry+0x10e>
10004da4:	6ca3      	ldr	r3, [r4, #72]	; 0x48
10004da6:	2b00      	cmp	r3, #0
10004da8:	d19b      	bne.n	10004ce2 <vQueueAddToRegistry+0x26>
10004daa:	2309      	movs	r3, #9
10004dac:	2248      	movs	r2, #72	; 0x48
10004dae:	18a6      	adds	r6, r4, r2
10004db0:	e792      	b.n	10004cd8 <vQueueAddToRegistry+0x1c>
10004db2:	00d2      	lsls	r2, r2, #3
10004db4:	18a6      	adds	r6, r4, r2
10004db6:	6031      	str	r1, [r6, #0]
10004db8:	6070      	str	r0, [r6, #4]
10004dba:	e792      	b.n	10004ce2 <vQueueAddToRegistry+0x26>
10004dbc:	002b      	movs	r3, r5
10004dbe:	18a6      	adds	r6, r4, r2
10004dc0:	e78a      	b.n	10004cd8 <vQueueAddToRegistry+0x1c>
10004dc2:	0013      	movs	r3, r2
10004dc4:	00d2      	lsls	r2, r2, #3
10004dc6:	18a6      	adds	r6, r4, r2
10004dc8:	e786      	b.n	10004cd8 <vQueueAddToRegistry+0x1c>
10004dca:	2248      	movs	r2, #72	; 0x48
10004dcc:	18a6      	adds	r6, r4, r2
10004dce:	e7f2      	b.n	10004db6 <vQueueAddToRegistry+0xfa>
10004dd0:	2000cab4 	.word	0x2000cab4

10004dd4 <pcQueueGetName>:
10004dd4:	4a1b      	ldr	r2, [pc, #108]	; (10004e44 <pcQueueGetName+0x70>)
10004dd6:	0003      	movs	r3, r0
10004dd8:	6851      	ldr	r1, [r2, #4]
10004dda:	4288      	cmp	r0, r1
10004ddc:	d01c      	beq.n	10004e18 <pcQueueGetName+0x44>
10004dde:	68d1      	ldr	r1, [r2, #12]
10004de0:	4288      	cmp	r0, r1
10004de2:	d01d      	beq.n	10004e20 <pcQueueGetName+0x4c>
10004de4:	6951      	ldr	r1, [r2, #20]
10004de6:	4288      	cmp	r0, r1
10004de8:	d01c      	beq.n	10004e24 <pcQueueGetName+0x50>
10004dea:	69d1      	ldr	r1, [r2, #28]
10004dec:	4288      	cmp	r0, r1
10004dee:	d01b      	beq.n	10004e28 <pcQueueGetName+0x54>
10004df0:	6a51      	ldr	r1, [r2, #36]	; 0x24
10004df2:	4288      	cmp	r0, r1
10004df4:	d01a      	beq.n	10004e2c <pcQueueGetName+0x58>
10004df6:	6ad1      	ldr	r1, [r2, #44]	; 0x2c
10004df8:	4288      	cmp	r0, r1
10004dfa:	d019      	beq.n	10004e30 <pcQueueGetName+0x5c>
10004dfc:	6b51      	ldr	r1, [r2, #52]	; 0x34
10004dfe:	4288      	cmp	r0, r1
10004e00:	d018      	beq.n	10004e34 <pcQueueGetName+0x60>
10004e02:	6bd1      	ldr	r1, [r2, #60]	; 0x3c
10004e04:	4288      	cmp	r0, r1
10004e06:	d017      	beq.n	10004e38 <pcQueueGetName+0x64>
10004e08:	6c51      	ldr	r1, [r2, #68]	; 0x44
10004e0a:	4288      	cmp	r0, r1
10004e0c:	d016      	beq.n	10004e3c <pcQueueGetName+0x68>
10004e0e:	6cd1      	ldr	r1, [r2, #76]	; 0x4c
10004e10:	2000      	movs	r0, #0
10004e12:	4299      	cmp	r1, r3
10004e14:	d014      	beq.n	10004e40 <pcQueueGetName+0x6c>
10004e16:	4770      	bx	lr
10004e18:	2300      	movs	r3, #0
10004e1a:	00db      	lsls	r3, r3, #3
10004e1c:	58d0      	ldr	r0, [r2, r3]
10004e1e:	e7fa      	b.n	10004e16 <pcQueueGetName+0x42>
10004e20:	2301      	movs	r3, #1
10004e22:	e7fa      	b.n	10004e1a <pcQueueGetName+0x46>
10004e24:	2302      	movs	r3, #2
10004e26:	e7f8      	b.n	10004e1a <pcQueueGetName+0x46>
10004e28:	2303      	movs	r3, #3
10004e2a:	e7f6      	b.n	10004e1a <pcQueueGetName+0x46>
10004e2c:	2304      	movs	r3, #4
10004e2e:	e7f4      	b.n	10004e1a <pcQueueGetName+0x46>
10004e30:	2305      	movs	r3, #5
10004e32:	e7f2      	b.n	10004e1a <pcQueueGetName+0x46>
10004e34:	2306      	movs	r3, #6
10004e36:	e7f0      	b.n	10004e1a <pcQueueGetName+0x46>
10004e38:	2307      	movs	r3, #7
10004e3a:	e7ee      	b.n	10004e1a <pcQueueGetName+0x46>
10004e3c:	2308      	movs	r3, #8
10004e3e:	e7ec      	b.n	10004e1a <pcQueueGetName+0x46>
10004e40:	2309      	movs	r3, #9
10004e42:	e7ea      	b.n	10004e1a <pcQueueGetName+0x46>
10004e44:	2000cab4 	.word	0x2000cab4

10004e48 <vQueueUnregisterQueue>:
10004e48:	4b1c      	ldr	r3, [pc, #112]	; (10004ebc <vQueueUnregisterQueue+0x74>)
10004e4a:	685a      	ldr	r2, [r3, #4]
10004e4c:	4290      	cmp	r0, r2
10004e4e:	d01b      	beq.n	10004e88 <vQueueUnregisterQueue+0x40>
10004e50:	68da      	ldr	r2, [r3, #12]
10004e52:	4290      	cmp	r0, r2
10004e54:	d01f      	beq.n	10004e96 <vQueueUnregisterQueue+0x4e>
10004e56:	695a      	ldr	r2, [r3, #20]
10004e58:	4290      	cmp	r0, r2
10004e5a:	d01e      	beq.n	10004e9a <vQueueUnregisterQueue+0x52>
10004e5c:	69da      	ldr	r2, [r3, #28]
10004e5e:	4290      	cmp	r0, r2
10004e60:	d01d      	beq.n	10004e9e <vQueueUnregisterQueue+0x56>
10004e62:	6a5a      	ldr	r2, [r3, #36]	; 0x24
10004e64:	4290      	cmp	r0, r2
10004e66:	d01c      	beq.n	10004ea2 <vQueueUnregisterQueue+0x5a>
10004e68:	6ada      	ldr	r2, [r3, #44]	; 0x2c
10004e6a:	4290      	cmp	r0, r2
10004e6c:	d01b      	beq.n	10004ea6 <vQueueUnregisterQueue+0x5e>
10004e6e:	6b5a      	ldr	r2, [r3, #52]	; 0x34
10004e70:	4290      	cmp	r0, r2
10004e72:	d01a      	beq.n	10004eaa <vQueueUnregisterQueue+0x62>
10004e74:	6bda      	ldr	r2, [r3, #60]	; 0x3c
10004e76:	4290      	cmp	r0, r2
10004e78:	d019      	beq.n	10004eae <vQueueUnregisterQueue+0x66>
10004e7a:	6c5a      	ldr	r2, [r3, #68]	; 0x44
10004e7c:	4290      	cmp	r0, r2
10004e7e:	d018      	beq.n	10004eb2 <vQueueUnregisterQueue+0x6a>
10004e80:	6cda      	ldr	r2, [r3, #76]	; 0x4c
10004e82:	4282      	cmp	r2, r0
10004e84:	d017      	beq.n	10004eb6 <vQueueUnregisterQueue+0x6e>
10004e86:	4770      	bx	lr
10004e88:	2200      	movs	r2, #0
10004e8a:	2100      	movs	r1, #0
10004e8c:	00d2      	lsls	r2, r2, #3
10004e8e:	5099      	str	r1, [r3, r2]
10004e90:	189b      	adds	r3, r3, r2
10004e92:	6059      	str	r1, [r3, #4]
10004e94:	e7f7      	b.n	10004e86 <vQueueUnregisterQueue+0x3e>
10004e96:	2201      	movs	r2, #1
10004e98:	e7f7      	b.n	10004e8a <vQueueUnregisterQueue+0x42>
10004e9a:	2202      	movs	r2, #2
10004e9c:	e7f5      	b.n	10004e8a <vQueueUnregisterQueue+0x42>
10004e9e:	2203      	movs	r2, #3
10004ea0:	e7f3      	b.n	10004e8a <vQueueUnregisterQueue+0x42>
10004ea2:	2204      	movs	r2, #4
10004ea4:	e7f1      	b.n	10004e8a <vQueueUnregisterQueue+0x42>
10004ea6:	2205      	movs	r2, #5
10004ea8:	e7ef      	b.n	10004e8a <vQueueUnregisterQueue+0x42>
10004eaa:	2206      	movs	r2, #6
10004eac:	e7ed      	b.n	10004e8a <vQueueUnregisterQueue+0x42>
10004eae:	2207      	movs	r2, #7
10004eb0:	e7eb      	b.n	10004e8a <vQueueUnregisterQueue+0x42>
10004eb2:	2208      	movs	r2, #8
10004eb4:	e7e9      	b.n	10004e8a <vQueueUnregisterQueue+0x42>
10004eb6:	2209      	movs	r2, #9
10004eb8:	e7e7      	b.n	10004e8a <vQueueUnregisterQueue+0x42>
10004eba:	46c0      	nop			; (mov r8, r8)
10004ebc:	2000cab4 	.word	0x2000cab4

10004ec0 <vQueueWaitForMessageRestricted>:
10004ec0:	b570      	push	{r4, r5, r6, lr}
10004ec2:	0004      	movs	r4, r0
10004ec4:	0016      	movs	r6, r2
10004ec6:	000d      	movs	r5, r1
10004ec8:	f7fe fd4c 	bl	10003964 <vPortEnterCritical>
10004ecc:	2244      	movs	r2, #68	; 0x44
10004ece:	5ca3      	ldrb	r3, [r4, r2]
10004ed0:	b25b      	sxtb	r3, r3
10004ed2:	3301      	adds	r3, #1
10004ed4:	d101      	bne.n	10004eda <vQueueWaitForMessageRestricted+0x1a>
10004ed6:	2300      	movs	r3, #0
10004ed8:	54a3      	strb	r3, [r4, r2]
10004eda:	2245      	movs	r2, #69	; 0x45
10004edc:	5ca3      	ldrb	r3, [r4, r2]
10004ede:	b25b      	sxtb	r3, r3
10004ee0:	3301      	adds	r3, #1
10004ee2:	d101      	bne.n	10004ee8 <vQueueWaitForMessageRestricted+0x28>
10004ee4:	2300      	movs	r3, #0
10004ee6:	54a3      	strb	r3, [r4, r2]
10004ee8:	f7fe fd48 	bl	1000397c <vPortExitCritical>
10004eec:	6ba3      	ldr	r3, [r4, #56]	; 0x38
10004eee:	2b00      	cmp	r3, #0
10004ef0:	d046      	beq.n	10004f80 <vQueueWaitForMessageRestricted+0xc0>
10004ef2:	f7fe fd37 	bl	10003964 <vPortEnterCritical>
10004ef6:	2345      	movs	r3, #69	; 0x45
10004ef8:	5ce5      	ldrb	r5, [r4, r3]
10004efa:	b26d      	sxtb	r5, r5
10004efc:	2d00      	cmp	r5, #0
10004efe:	dd16      	ble.n	10004f2e <vQueueWaitForMessageRestricted+0x6e>
10004f00:	0026      	movs	r6, r4
10004f02:	3624      	adds	r6, #36	; 0x24
10004f04:	e004      	b.n	10004f10 <vQueueWaitForMessageRestricted+0x50>
10004f06:	3d01      	subs	r5, #1
10004f08:	b2eb      	uxtb	r3, r5
10004f0a:	b26d      	sxtb	r5, r5
10004f0c:	2b00      	cmp	r3, #0
10004f0e:	d00e      	beq.n	10004f2e <vQueueWaitForMessageRestricted+0x6e>
10004f10:	6a63      	ldr	r3, [r4, #36]	; 0x24
10004f12:	2b00      	cmp	r3, #0
10004f14:	d00b      	beq.n	10004f2e <vQueueWaitForMessageRestricted+0x6e>
10004f16:	0030      	movs	r0, r6
10004f18:	f7fd fed2 	bl	10002cc0 <xTaskRemoveFromEventList>
10004f1c:	2800      	cmp	r0, #0
10004f1e:	d0f2      	beq.n	10004f06 <vQueueWaitForMessageRestricted+0x46>
10004f20:	3d01      	subs	r5, #1
10004f22:	f7fd ffcb 	bl	10002ebc <vTaskMissedYield>
10004f26:	b2eb      	uxtb	r3, r5
10004f28:	b26d      	sxtb	r5, r5
10004f2a:	2b00      	cmp	r3, #0
10004f2c:	d1f0      	bne.n	10004f10 <vQueueWaitForMessageRestricted+0x50>
10004f2e:	2345      	movs	r3, #69	; 0x45
10004f30:	22ff      	movs	r2, #255	; 0xff
10004f32:	54e2      	strb	r2, [r4, r3]
10004f34:	f7fe fd22 	bl	1000397c <vPortExitCritical>
10004f38:	f7fe fd14 	bl	10003964 <vPortEnterCritical>
10004f3c:	2344      	movs	r3, #68	; 0x44
10004f3e:	5ce5      	ldrb	r5, [r4, r3]
10004f40:	b26d      	sxtb	r5, r5
10004f42:	2d00      	cmp	r5, #0
10004f44:	dd16      	ble.n	10004f74 <vQueueWaitForMessageRestricted+0xb4>
10004f46:	0026      	movs	r6, r4
10004f48:	3610      	adds	r6, #16
10004f4a:	e004      	b.n	10004f56 <vQueueWaitForMessageRestricted+0x96>
10004f4c:	3d01      	subs	r5, #1
10004f4e:	b2eb      	uxtb	r3, r5
10004f50:	b26d      	sxtb	r5, r5
10004f52:	2b00      	cmp	r3, #0
10004f54:	d00e      	beq.n	10004f74 <vQueueWaitForMessageRestricted+0xb4>
10004f56:	6923      	ldr	r3, [r4, #16]
10004f58:	2b00      	cmp	r3, #0
10004f5a:	d00b      	beq.n	10004f74 <vQueueWaitForMessageRestricted+0xb4>
10004f5c:	0030      	movs	r0, r6
10004f5e:	f7fd feaf 	bl	10002cc0 <xTaskRemoveFromEventList>
10004f62:	2800      	cmp	r0, #0
10004f64:	d0f2      	beq.n	10004f4c <vQueueWaitForMessageRestricted+0x8c>
10004f66:	3d01      	subs	r5, #1
10004f68:	f7fd ffa8 	bl	10002ebc <vTaskMissedYield>
10004f6c:	b2eb      	uxtb	r3, r5
10004f6e:	b26d      	sxtb	r5, r5
10004f70:	2b00      	cmp	r3, #0
10004f72:	d1f0      	bne.n	10004f56 <vQueueWaitForMessageRestricted+0x96>
10004f74:	2344      	movs	r3, #68	; 0x44
10004f76:	22ff      	movs	r2, #255	; 0xff
10004f78:	54e2      	strb	r2, [r4, r3]
10004f7a:	f7fe fcff 	bl	1000397c <vPortExitCritical>
10004f7e:	bd70      	pop	{r4, r5, r6, pc}
10004f80:	0020      	movs	r0, r4
10004f82:	0032      	movs	r2, r6
10004f84:	0029      	movs	r1, r5
10004f86:	3024      	adds	r0, #36	; 0x24
10004f88:	f7fd fe48 	bl	10002c1c <vTaskPlaceOnEventListRestricted>
10004f8c:	e7b1      	b.n	10004ef2 <vQueueWaitForMessageRestricted+0x32>
10004f8e:	46c0      	nop			; (mov r8, r8)

10004f90 <strlen>:
10004f90:	b510      	push	{r4, lr}
10004f92:	0783      	lsls	r3, r0, #30
10004f94:	d027      	beq.n	10004fe6 <strlen+0x56>
10004f96:	7803      	ldrb	r3, [r0, #0]
10004f98:	2b00      	cmp	r3, #0
10004f9a:	d026      	beq.n	10004fea <strlen+0x5a>
10004f9c:	0003      	movs	r3, r0
10004f9e:	2103      	movs	r1, #3
10004fa0:	e002      	b.n	10004fa8 <strlen+0x18>
10004fa2:	781a      	ldrb	r2, [r3, #0]
10004fa4:	2a00      	cmp	r2, #0
10004fa6:	d01c      	beq.n	10004fe2 <strlen+0x52>
10004fa8:	3301      	adds	r3, #1
10004faa:	420b      	tst	r3, r1
10004fac:	d1f9      	bne.n	10004fa2 <strlen+0x12>
10004fae:	6819      	ldr	r1, [r3, #0]
10004fb0:	4a0f      	ldr	r2, [pc, #60]	; (10004ff0 <strlen+0x60>)
10004fb2:	4c10      	ldr	r4, [pc, #64]	; (10004ff4 <strlen+0x64>)
10004fb4:	188a      	adds	r2, r1, r2
10004fb6:	438a      	bics	r2, r1
10004fb8:	4222      	tst	r2, r4
10004fba:	d10f      	bne.n	10004fdc <strlen+0x4c>
10004fbc:	3304      	adds	r3, #4
10004fbe:	6819      	ldr	r1, [r3, #0]
10004fc0:	4a0b      	ldr	r2, [pc, #44]	; (10004ff0 <strlen+0x60>)
10004fc2:	188a      	adds	r2, r1, r2
10004fc4:	438a      	bics	r2, r1
10004fc6:	4222      	tst	r2, r4
10004fc8:	d108      	bne.n	10004fdc <strlen+0x4c>
10004fca:	3304      	adds	r3, #4
10004fcc:	6819      	ldr	r1, [r3, #0]
10004fce:	4a08      	ldr	r2, [pc, #32]	; (10004ff0 <strlen+0x60>)
10004fd0:	188a      	adds	r2, r1, r2
10004fd2:	438a      	bics	r2, r1
10004fd4:	4222      	tst	r2, r4
10004fd6:	d0f1      	beq.n	10004fbc <strlen+0x2c>
10004fd8:	e000      	b.n	10004fdc <strlen+0x4c>
10004fda:	3301      	adds	r3, #1
10004fdc:	781a      	ldrb	r2, [r3, #0]
10004fde:	2a00      	cmp	r2, #0
10004fe0:	d1fb      	bne.n	10004fda <strlen+0x4a>
10004fe2:	1a18      	subs	r0, r3, r0
10004fe4:	bd10      	pop	{r4, pc}
10004fe6:	0003      	movs	r3, r0
10004fe8:	e7e1      	b.n	10004fae <strlen+0x1e>
10004fea:	2000      	movs	r0, #0
10004fec:	e7fa      	b.n	10004fe4 <strlen+0x54>
10004fee:	46c0      	nop			; (mov r8, r8)
10004ff0:	fefefeff 	.word	0xfefefeff
10004ff4:	80808080 	.word	0x80808080

10004ff8 <_fini>:
10004ff8:	b5f8      	push	{r3, r4, r5, r6, r7, lr}
10004ffa:	46c0      	nop			; (mov r8, r8)
10004ffc:	0000      	movs	r0, r0
	...

10005000 <__mutex_exit_veneer>:
10005000:	b401      	push	{r0}
10005002:	4802      	ldr	r0, [pc, #8]	; (1000500c <__mutex_exit_veneer+0xc>)
10005004:	4684      	mov	ip, r0
10005006:	bc01      	pop	{r0}
10005008:	4760      	bx	ip
1000500a:	bf00      	nop
1000500c:	20000151 	.word	0x20000151

10005010 <____aeabi_idiv0_veneer>:
10005010:	b401      	push	{r0}
10005012:	4802      	ldr	r0, [pc, #8]	; (1000501c <____aeabi_idiv0_veneer+0xc>)
10005014:	4684      	mov	ip, r0
10005016:	bc01      	pop	{r0}
10005018:	4760      	bx	ip
1000501a:	bf00      	nop
1000501c:	20000179 	.word	0x20000179

10005020 <__mutex_try_enter_veneer>:
10005020:	b401      	push	{r0}
10005022:	4802      	ldr	r0, [pc, #8]	; (1000502c <__mutex_try_enter_veneer+0xc>)
10005024:	4684      	mov	ip, r0
10005026:	bc01      	pop	{r0}
10005028:	4760      	bx	ip
1000502a:	bf00      	nop
1000502c:	20000109 	.word	0x20000109

10005030 <__mutex_enter_blocking_veneer>:
10005030:	b401      	push	{r0}
10005032:	4802      	ldr	r0, [pc, #8]	; (1000503c <__mutex_enter_blocking_veneer+0xc>)
10005034:	4684      	mov	ip, r0
10005036:	bc01      	pop	{r0}
10005038:	4760      	bx	ip
1000503a:	bf00      	nop
1000503c:	200000c1 	.word	0x200000c1

Disassembly of section .data:

200000c0 <mutex_enter_blocking>:
200000c0:	23d0      	movs	r3, #208	; 0xd0
200000c2:	b530      	push	{r4, r5, lr}
200000c4:	2500      	movs	r5, #0
200000c6:	061b      	lsls	r3, r3, #24
200000c8:	2400      	movs	r4, #0
200000ca:	575d      	ldrsb	r5, [r3, r5]
200000cc:	e006      	b.n	200000dc <mutex_enter_blocking+0x1c>
200000ce:	6803      	ldr	r3, [r0, #0]
200000d0:	f3bf 8f5f 	dmb	sy
200000d4:	601c      	str	r4, [r3, #0]
200000d6:	f381 8810 	msr	PRIMASK, r1
200000da:	bf20      	wfe
200000dc:	6802      	ldr	r2, [r0, #0]
200000de:	f3ef 8110 	mrs	r1, PRIMASK
200000e2:	b672      	cpsid	i
200000e4:	6813      	ldr	r3, [r2, #0]
200000e6:	2b00      	cmp	r3, #0
200000e8:	d0fc      	beq.n	200000e4 <mutex_enter_blocking+0x24>
200000ea:	f3bf 8f5f 	dmb	sy
200000ee:	7903      	ldrb	r3, [r0, #4]
200000f0:	2b7f      	cmp	r3, #127	; 0x7f
200000f2:	d9ec      	bls.n	200000ce <mutex_enter_blocking+0xe>
200000f4:	7105      	strb	r5, [r0, #4]
200000f6:	6803      	ldr	r3, [r0, #0]
200000f8:	f3bf 8f5f 	dmb	sy
200000fc:	2200      	movs	r2, #0
200000fe:	601a      	str	r2, [r3, #0]
20000100:	f381 8810 	msr	PRIMASK, r1
20000104:	bd30      	pop	{r4, r5, pc}
20000106:	46c0      	nop			; (mov r8, r8)

20000108 <mutex_try_enter>:
20000108:	0003      	movs	r3, r0
2000010a:	b510      	push	{r4, lr}
2000010c:	6800      	ldr	r0, [r0, #0]
2000010e:	f3ef 8410 	mrs	r4, PRIMASK
20000112:	b672      	cpsid	i
20000114:	6802      	ldr	r2, [r0, #0]
20000116:	2a00      	cmp	r2, #0
20000118:	d0fc      	beq.n	20000114 <mutex_try_enter+0xc>
2000011a:	f3bf 8f5f 	dmb	sy
2000011e:	2204      	movs	r2, #4
20000120:	569a      	ldrsb	r2, [r3, r2]
20000122:	2a00      	cmp	r2, #0
20000124:	db0b      	blt.n	2000013e <mutex_try_enter+0x36>
20000126:	2900      	cmp	r1, #0
20000128:	d00f      	beq.n	2000014a <mutex_try_enter+0x42>
2000012a:	2000      	movs	r0, #0
2000012c:	600a      	str	r2, [r1, #0]
2000012e:	681b      	ldr	r3, [r3, #0]
20000130:	f3bf 8f5f 	dmb	sy
20000134:	2200      	movs	r2, #0
20000136:	601a      	str	r2, [r3, #0]
20000138:	f384 8810 	msr	PRIMASK, r4
2000013c:	bd10      	pop	{r4, pc}
2000013e:	22d0      	movs	r2, #208	; 0xd0
20000140:	0612      	lsls	r2, r2, #24
20000142:	6812      	ldr	r2, [r2, #0]
20000144:	2001      	movs	r0, #1
20000146:	711a      	strb	r2, [r3, #4]
20000148:	e7f1      	b.n	2000012e <mutex_try_enter+0x26>
2000014a:	2000      	movs	r0, #0
2000014c:	e7ef      	b.n	2000012e <mutex_try_enter+0x26>
2000014e:	46c0      	nop			; (mov r8, r8)

20000150 <mutex_exit>:
20000150:	6802      	ldr	r2, [r0, #0]
20000152:	f3ef 8110 	mrs	r1, PRIMASK
20000156:	b672      	cpsid	i
20000158:	6813      	ldr	r3, [r2, #0]
2000015a:	2b00      	cmp	r3, #0
2000015c:	d0fc      	beq.n	20000158 <mutex_exit+0x8>
2000015e:	f3bf 8f5f 	dmb	sy
20000162:	23ff      	movs	r3, #255	; 0xff
20000164:	7103      	strb	r3, [r0, #4]
20000166:	6803      	ldr	r3, [r0, #0]
20000168:	f3bf 8f5f 	dmb	sy
2000016c:	2200      	movs	r2, #0
2000016e:	601a      	str	r2, [r3, #0]
20000170:	f381 8810 	msr	PRIMASK, r1
20000174:	bf40      	sev
20000176:	4770      	bx	lr

20000178 <__aeabi_idiv0>:
20000178:	4770      	bx	lr
2000017a:	46c0      	nop			; (mov r8, r8)

2000017c <striped_spin_lock_num>:
2000017c:	0010 0000                                   ....

20000180 <default_alarm_pool>:
20000180:	0198 2000 0000 0000 0248 2000 c834 2000     ... ....H.. 4.. 
	...

20000198 <default_alarm_pool_heap>:
20000198:	c844 2000 0000 0000 0000 0000 0010 0000     D.. ............

200001a8 <irq_handler_chain_slots>:
200001a8:	00000000 	.word	0x00000000
200001ac:	00010000 	.word	0x00010000
	...
200001b8:	00020000 	.word	0x00020000
	...
200001c4:	00030000 	.word	0x00030000
	...
200001d0:	00ff0000 	.word	0x00ff0000
200001d4:	00000000 	.word	0x00000000

200001d8 <irq_handler_chain_first_slot>:
200001d8:	b500      	push	{lr}
200001da:	6848      	ldr	r0, [r1, #4]
200001dc:	3101      	adds	r1, #1
200001de:	468e      	mov	lr, r1
200001e0:	4700      	bx	r0

200001e2 <irq_handler_chain_remove_tail>:
200001e2:	4670      	mov	r0, lr
200001e4:	3809      	subs	r0, #9
200001e6:	4901      	ldr	r1, [pc, #4]	; (200001ec <irq_handler_chain_remove_tail+0xa>)
200001e8:	4788      	blx	r1
200001ea:	bd00      	pop	{pc}
200001ec:	10001639 	.word	0x10001639

200001f0 <aeabi_bits_funcs>:
200001f0:	00003350 	.word	0x00003350
200001f4:	0000334c 	.word	0x0000334c
200001f8:	00003354 	.word	0x00003354
200001fc:	00003352 	.word	0x00003352

20000200 <aeabi_bits_funcs_end>:
20000200:	0000534d 	.word	0x0000534d
20000204:	0000434d 	.word	0x0000434d
20000208:	00003453 	.word	0x00003453
2000020c:	00003443 	.word	0x00003443

20000210 <stdio_uart>:
20000210:	10001d55 00000000 10001da1 00000000     U...............
20000220:	00000100                                ....

20000224 <uxTopUsedPriority>:
20000224:	00000003                                ....

20000228 <uxCriticalNesting>:
20000228:	aaaaaaaa                                ....

2000022c <print_mutex>:
	...

20000234 <__mutex_array_end>:
20000234:	10001a65 	.word	0x10001a65
20000238:	10001831 	.word	0x10001831
2000023c:	100018e9 	.word	0x100018e9
20000240:	100019d5 	.word	0x100019d5

20000244 <__frame_dummy_init_array_entry>:
20000244:	10000339                                9...
